
VFC-Control.elf:     file format elf32-littlearm

Sections:
Idx Name          Size      VMA       LMA       File off  Algn
  0 .isr_vector   00000188  08000000  08000000  00010000  2**0
                  CONTENTS, ALLOC, LOAD, READONLY, DATA
  1 .text         0000515c  08000190  08000190  00010190  2**4
                  CONTENTS, ALLOC, LOAD, READONLY, CODE
  2 .rodata       00000198  080052ec  080052ec  000152ec  2**2
                  CONTENTS, ALLOC, LOAD, READONLY, DATA
  3 .ARM.extab    00000000  08005484  08005484  00020010  2**0
                  CONTENTS
  4 .ARM          00000008  08005484  08005484  00015484  2**2
                  CONTENTS, ALLOC, LOAD, READONLY, DATA
  5 .preinit_array 00000000  0800548c  0800548c  00020010  2**0
                  CONTENTS, ALLOC, LOAD, DATA
  6 .init_array   00000004  0800548c  0800548c  0001548c  2**2
                  CONTENTS, ALLOC, LOAD, DATA
  7 .fini_array   00000004  08005490  08005490  00015490  2**2
                  CONTENTS, ALLOC, LOAD, DATA
  8 .data         00000010  20000000  08005494  00020000  2**2
                  CONTENTS, ALLOC, LOAD, DATA
  9 .bss          000055c0  20000010  080054a4  00020010  2**2
                  ALLOC
 10 ._user_heap_stack 00000600  200055d0  080054a4  000255d0  2**0
                  ALLOC
 11 .ARM.attributes 00000030  00000000  00000000  00020010  2**0
                  CONTENTS, READONLY
 12 .comment      0000007b  00000000  00000000  00020040  2**0
                  CONTENTS, READONLY
 13 .debug_frame  00000120  00000000  00000000  000200bc  2**2
                  CONTENTS, READONLY, DEBUGGING

Disassembly of section .text:

08000190 <__do_global_dtors_aux>:
 8000190:	b510      	push	{r4, lr}
 8000192:	4c05      	ldr	r4, [pc, #20]	; (80001a8 <__do_global_dtors_aux+0x18>)
 8000194:	7823      	ldrb	r3, [r4, #0]
 8000196:	b933      	cbnz	r3, 80001a6 <__do_global_dtors_aux+0x16>
 8000198:	4b04      	ldr	r3, [pc, #16]	; (80001ac <__do_global_dtors_aux+0x1c>)
 800019a:	b113      	cbz	r3, 80001a2 <__do_global_dtors_aux+0x12>
 800019c:	4804      	ldr	r0, [pc, #16]	; (80001b0 <__do_global_dtors_aux+0x20>)
 800019e:	f3af 8000 	nop.w
 80001a2:	2301      	movs	r3, #1
 80001a4:	7023      	strb	r3, [r4, #0]
 80001a6:	bd10      	pop	{r4, pc}
 80001a8:	20000010 	.word	0x20000010
 80001ac:	00000000 	.word	0x00000000
 80001b0:	080052d4 	.word	0x080052d4

080001b4 <frame_dummy>:
 80001b4:	b508      	push	{r3, lr}
 80001b6:	4b03      	ldr	r3, [pc, #12]	; (80001c4 <frame_dummy+0x10>)
 80001b8:	b11b      	cbz	r3, 80001c2 <frame_dummy+0xe>
 80001ba:	4903      	ldr	r1, [pc, #12]	; (80001c8 <frame_dummy+0x14>)
 80001bc:	4803      	ldr	r0, [pc, #12]	; (80001cc <frame_dummy+0x18>)
 80001be:	f3af 8000 	nop.w
 80001c2:	bd08      	pop	{r3, pc}
 80001c4:	00000000 	.word	0x00000000
 80001c8:	20000014 	.word	0x20000014
 80001cc:	080052d4 	.word	0x080052d4

080001d0 <SEGGER_RTT_ASM_WriteSkipNoLock>:
 80001d0:	b4f0      	push	{r4, r5, r6, r7}
 80001d2:	eb00 0340 	add.w	r3, r0, r0, lsl #1
 80001d6:	f8df 0080 	ldr.w	r0, [pc, #128]	; 8000258 <_Case3+0x6>
 80001da:	eb00 00c3 	add.w	r0, r0, r3, lsl #3
 80001de:	f100 0618 	add.w	r6, r0, #24
 80001e2:	6930      	ldr	r0, [r6, #16]
 80001e4:	68f7      	ldr	r7, [r6, #12]
 80001e6:	6875      	ldr	r5, [r6, #4]
 80001e8:	4287      	cmp	r7, r0
 80001ea:	d32e      	bcc.n	800024a <_CheckCase4>
 80001ec:	68b3      	ldr	r3, [r6, #8]
 80001ee:	1bdc      	subs	r4, r3, r7
 80001f0:	1e63      	subs	r3, r4, #1
 80001f2:	4293      	cmp	r3, r2
 80001f4:	d312      	bcc.n	800021c <_CheckCase2>

080001f6 <_Case4>:
 80001f6:	197d      	adds	r5, r7, r5
 80001f8:	19d0      	adds	r0, r2, r7
 80001fa:	bf00      	nop

080001fc <_LoopCopyStraight>:
 80001fc:	f811 3b01 	ldrb.w	r3, [r1], #1
 8000200:	f805 3b01 	strb.w	r3, [r5], #1
 8000204:	3a01      	subs	r2, #1
 8000206:	d005      	beq.n	8000214 <_CSDone>
 8000208:	f811 3b01 	ldrb.w	r3, [r1], #1
 800020c:	f805 3b01 	strb.w	r3, [r5], #1
 8000210:	3a01      	subs	r2, #1
 8000212:	d1f3      	bne.n	80001fc <_LoopCopyStraight>

08000214 <_CSDone>:
 8000214:	60f0      	str	r0, [r6, #12]
 8000216:	2001      	movs	r0, #1
 8000218:	bcf0      	pop	{r4, r5, r6, r7}
 800021a:	4770      	bx	lr

0800021c <_CheckCase2>:
 800021c:	18c0      	adds	r0, r0, r3
 800021e:	4290      	cmp	r0, r2
 8000220:	d317      	bcc.n	8000252 <_Case3>
 8000222:	1978      	adds	r0, r7, r5
 8000224:	1b12      	subs	r2, r2, r4

08000226 <_LoopCopyBeforeWrapAround>:
 8000226:	f811 3b01 	ldrb.w	r3, [r1], #1
 800022a:	f800 3b01 	strb.w	r3, [r0], #1
 800022e:	3c01      	subs	r4, #1
 8000230:	d1f9      	bne.n	8000226 <_LoopCopyBeforeWrapAround>
 8000232:	1c14      	adds	r4, r2, #0
 8000234:	d005      	beq.n	8000242 <_No2ChunkNeeded>

08000236 <_LoopCopyAfterWrapAround>:
 8000236:	f811 3b01 	ldrb.w	r3, [r1], #1
 800023a:	f805 3b01 	strb.w	r3, [r5], #1
 800023e:	3a01      	subs	r2, #1
 8000240:	d1f9      	bne.n	8000236 <_LoopCopyAfterWrapAround>

08000242 <_No2ChunkNeeded>:
 8000242:	60f4      	str	r4, [r6, #12]
 8000244:	2001      	movs	r0, #1
 8000246:	bcf0      	pop	{r4, r5, r6, r7}
 8000248:	4770      	bx	lr

0800024a <_CheckCase4>:
 800024a:	1bc0      	subs	r0, r0, r7
 800024c:	3801      	subs	r0, #1
 800024e:	4290      	cmp	r0, r2
 8000250:	d2d1      	bcs.n	80001f6 <_Case4>

08000252 <_Case3>:
 8000252:	2000      	movs	r0, #0
 8000254:	bcf0      	pop	{r4, r5, r6, r7}
 8000256:	4770      	bx	lr
 8000258:	20005528 	.word	0x20005528

0800025c <__aeabi_uldivmod>:
 800025c:	b953      	cbnz	r3, 8000274 <__aeabi_uldivmod+0x18>
 800025e:	b94a      	cbnz	r2, 8000274 <__aeabi_uldivmod+0x18>
 8000260:	2900      	cmp	r1, #0
 8000262:	bf08      	it	eq
 8000264:	2800      	cmpeq	r0, #0
 8000266:	bf1c      	itt	ne
 8000268:	f04f 31ff 	movne.w	r1, #4294967295
 800026c:	f04f 30ff 	movne.w	r0, #4294967295
 8000270:	f000 b972 	b.w	8000558 <__aeabi_idiv0>
 8000274:	f1ad 0c08 	sub.w	ip, sp, #8
 8000278:	e96d ce04 	strd	ip, lr, [sp, #-16]!
 800027c:	f000 f806 	bl	800028c <__udivmoddi4>
 8000280:	f8dd e004 	ldr.w	lr, [sp, #4]
 8000284:	e9dd 2302 	ldrd	r2, r3, [sp, #8]
 8000288:	b004      	add	sp, #16
 800028a:	4770      	bx	lr

0800028c <__udivmoddi4>:
 800028c:	e92d 47f0 	stmdb	sp!, {r4, r5, r6, r7, r8, r9, sl, lr}
 8000290:	9e08      	ldr	r6, [sp, #32]
 8000292:	4604      	mov	r4, r0
 8000294:	4688      	mov	r8, r1
 8000296:	2b00      	cmp	r3, #0
 8000298:	d14b      	bne.n	8000332 <__udivmoddi4+0xa6>
 800029a:	428a      	cmp	r2, r1
 800029c:	4615      	mov	r5, r2
 800029e:	d967      	bls.n	8000370 <__udivmoddi4+0xe4>
 80002a0:	fab2 f282 	clz	r2, r2
 80002a4:	b14a      	cbz	r2, 80002ba <__udivmoddi4+0x2e>
 80002a6:	f1c2 0720 	rsb	r7, r2, #32
 80002aa:	fa01 f302 	lsl.w	r3, r1, r2
 80002ae:	fa20 f707 	lsr.w	r7, r0, r7
 80002b2:	4095      	lsls	r5, r2
 80002b4:	ea47 0803 	orr.w	r8, r7, r3
 80002b8:	4094      	lsls	r4, r2
 80002ba:	ea4f 4e15 	mov.w	lr, r5, lsr #16
 80002be:	0c23      	lsrs	r3, r4, #16
 80002c0:	fbb8 f7fe 	udiv	r7, r8, lr
 80002c4:	fa1f fc85 	uxth.w	ip, r5
 80002c8:	fb0e 8817 	mls	r8, lr, r7, r8
 80002cc:	ea43 4308 	orr.w	r3, r3, r8, lsl #16
 80002d0:	fb07 f10c 	mul.w	r1, r7, ip
 80002d4:	4299      	cmp	r1, r3
 80002d6:	d909      	bls.n	80002ec <__udivmoddi4+0x60>
 80002d8:	18eb      	adds	r3, r5, r3
 80002da:	f107 30ff 	add.w	r0, r7, #4294967295
 80002de:	f080 811b 	bcs.w	8000518 <__udivmoddi4+0x28c>
 80002e2:	4299      	cmp	r1, r3
 80002e4:	f240 8118 	bls.w	8000518 <__udivmoddi4+0x28c>
 80002e8:	3f02      	subs	r7, #2
 80002ea:	442b      	add	r3, r5
 80002ec:	1a5b      	subs	r3, r3, r1
 80002ee:	b2a4      	uxth	r4, r4
 80002f0:	fbb3 f0fe 	udiv	r0, r3, lr
 80002f4:	fb0e 3310 	mls	r3, lr, r0, r3
 80002f8:	ea44 4403 	orr.w	r4, r4, r3, lsl #16
 80002fc:	fb00 fc0c 	mul.w	ip, r0, ip
 8000300:	45a4      	cmp	ip, r4
 8000302:	d909      	bls.n	8000318 <__udivmoddi4+0x8c>
 8000304:	192c      	adds	r4, r5, r4
 8000306:	f100 33ff 	add.w	r3, r0, #4294967295
 800030a:	f080 8107 	bcs.w	800051c <__udivmoddi4+0x290>
 800030e:	45a4      	cmp	ip, r4
 8000310:	f240 8104 	bls.w	800051c <__udivmoddi4+0x290>
 8000314:	3802      	subs	r0, #2
 8000316:	442c      	add	r4, r5
 8000318:	ea40 4007 	orr.w	r0, r0, r7, lsl #16
 800031c:	eba4 040c 	sub.w	r4, r4, ip
 8000320:	2700      	movs	r7, #0
 8000322:	b11e      	cbz	r6, 800032c <__udivmoddi4+0xa0>
 8000324:	40d4      	lsrs	r4, r2
 8000326:	2300      	movs	r3, #0
 8000328:	e9c6 4300 	strd	r4, r3, [r6]
 800032c:	4639      	mov	r1, r7
 800032e:	e8bd 87f0 	ldmia.w	sp!, {r4, r5, r6, r7, r8, r9, sl, pc}
 8000332:	428b      	cmp	r3, r1
 8000334:	d909      	bls.n	800034a <__udivmoddi4+0xbe>
 8000336:	2e00      	cmp	r6, #0
 8000338:	f000 80eb 	beq.w	8000512 <__udivmoddi4+0x286>
 800033c:	2700      	movs	r7, #0
 800033e:	e9c6 0100 	strd	r0, r1, [r6]
 8000342:	4638      	mov	r0, r7
 8000344:	4639      	mov	r1, r7
 8000346:	e8bd 87f0 	ldmia.w	sp!, {r4, r5, r6, r7, r8, r9, sl, pc}
 800034a:	fab3 f783 	clz	r7, r3
 800034e:	2f00      	cmp	r7, #0
 8000350:	d147      	bne.n	80003e2 <__udivmoddi4+0x156>
 8000352:	428b      	cmp	r3, r1
 8000354:	d302      	bcc.n	800035c <__udivmoddi4+0xd0>
 8000356:	4282      	cmp	r2, r0
 8000358:	f200 80fa 	bhi.w	8000550 <__udivmoddi4+0x2c4>
 800035c:	1a84      	subs	r4, r0, r2
 800035e:	eb61 0303 	sbc.w	r3, r1, r3
 8000362:	2001      	movs	r0, #1
 8000364:	4698      	mov	r8, r3
 8000366:	2e00      	cmp	r6, #0
 8000368:	d0e0      	beq.n	800032c <__udivmoddi4+0xa0>
 800036a:	e9c6 4800 	strd	r4, r8, [r6]
 800036e:	e7dd      	b.n	800032c <__udivmoddi4+0xa0>
 8000370:	b902      	cbnz	r2, 8000374 <__udivmoddi4+0xe8>
 8000372:	deff      	udf	#255	; 0xff
 8000374:	fab2 f282 	clz	r2, r2
 8000378:	2a00      	cmp	r2, #0
 800037a:	f040 808f 	bne.w	800049c <__udivmoddi4+0x210>
 800037e:	1b49      	subs	r1, r1, r5
 8000380:	ea4f 4e15 	mov.w	lr, r5, lsr #16
 8000384:	fa1f f885 	uxth.w	r8, r5
 8000388:	2701      	movs	r7, #1
 800038a:	fbb1 fcfe 	udiv	ip, r1, lr
 800038e:	0c23      	lsrs	r3, r4, #16
 8000390:	fb0e 111c 	mls	r1, lr, ip, r1
 8000394:	ea43 4301 	orr.w	r3, r3, r1, lsl #16
 8000398:	fb08 f10c 	mul.w	r1, r8, ip
 800039c:	4299      	cmp	r1, r3
 800039e:	d907      	bls.n	80003b0 <__udivmoddi4+0x124>
 80003a0:	18eb      	adds	r3, r5, r3
 80003a2:	f10c 30ff 	add.w	r0, ip, #4294967295
 80003a6:	d202      	bcs.n	80003ae <__udivmoddi4+0x122>
 80003a8:	4299      	cmp	r1, r3
 80003aa:	f200 80cd 	bhi.w	8000548 <__udivmoddi4+0x2bc>
 80003ae:	4684      	mov	ip, r0
 80003b0:	1a59      	subs	r1, r3, r1
 80003b2:	b2a3      	uxth	r3, r4
 80003b4:	fbb1 f0fe 	udiv	r0, r1, lr
 80003b8:	fb0e 1410 	mls	r4, lr, r0, r1
 80003bc:	ea43 4404 	orr.w	r4, r3, r4, lsl #16
 80003c0:	fb08 f800 	mul.w	r8, r8, r0
 80003c4:	45a0      	cmp	r8, r4
 80003c6:	d907      	bls.n	80003d8 <__udivmoddi4+0x14c>
 80003c8:	192c      	adds	r4, r5, r4
 80003ca:	f100 33ff 	add.w	r3, r0, #4294967295
 80003ce:	d202      	bcs.n	80003d6 <__udivmoddi4+0x14a>
 80003d0:	45a0      	cmp	r8, r4
 80003d2:	f200 80b6 	bhi.w	8000542 <__udivmoddi4+0x2b6>
 80003d6:	4618      	mov	r0, r3
 80003d8:	eba4 0408 	sub.w	r4, r4, r8
 80003dc:	ea40 400c 	orr.w	r0, r0, ip, lsl #16
 80003e0:	e79f      	b.n	8000322 <__udivmoddi4+0x96>
 80003e2:	f1c7 0c20 	rsb	ip, r7, #32
 80003e6:	40bb      	lsls	r3, r7
 80003e8:	fa22 fe0c 	lsr.w	lr, r2, ip
 80003ec:	ea4e 0e03 	orr.w	lr, lr, r3
 80003f0:	fa01 f407 	lsl.w	r4, r1, r7
 80003f4:	fa20 f50c 	lsr.w	r5, r0, ip
 80003f8:	fa21 f30c 	lsr.w	r3, r1, ip
 80003fc:	ea4f 481e 	mov.w	r8, lr, lsr #16
 8000400:	4325      	orrs	r5, r4
 8000402:	fbb3 f9f8 	udiv	r9, r3, r8
 8000406:	0c2c      	lsrs	r4, r5, #16
 8000408:	fb08 3319 	mls	r3, r8, r9, r3
 800040c:	fa1f fa8e 	uxth.w	sl, lr
 8000410:	ea44 4303 	orr.w	r3, r4, r3, lsl #16
 8000414:	fb09 f40a 	mul.w	r4, r9, sl
 8000418:	429c      	cmp	r4, r3
 800041a:	fa02 f207 	lsl.w	r2, r2, r7
 800041e:	fa00 f107 	lsl.w	r1, r0, r7
 8000422:	d90b      	bls.n	800043c <__udivmoddi4+0x1b0>
 8000424:	eb1e 0303 	adds.w	r3, lr, r3
 8000428:	f109 30ff 	add.w	r0, r9, #4294967295
 800042c:	f080 8087 	bcs.w	800053e <__udivmoddi4+0x2b2>
 8000430:	429c      	cmp	r4, r3
 8000432:	f240 8084 	bls.w	800053e <__udivmoddi4+0x2b2>
 8000436:	f1a9 0902 	sub.w	r9, r9, #2
 800043a:	4473      	add	r3, lr
 800043c:	1b1b      	subs	r3, r3, r4
 800043e:	b2ad      	uxth	r5, r5
 8000440:	fbb3 f0f8 	udiv	r0, r3, r8
 8000444:	fb08 3310 	mls	r3, r8, r0, r3
 8000448:	ea45 4403 	orr.w	r4, r5, r3, lsl #16
 800044c:	fb00 fa0a 	mul.w	sl, r0, sl
 8000450:	45a2      	cmp	sl, r4
 8000452:	d908      	bls.n	8000466 <__udivmoddi4+0x1da>
 8000454:	eb1e 0404 	adds.w	r4, lr, r4
 8000458:	f100 33ff 	add.w	r3, r0, #4294967295
 800045c:	d26b      	bcs.n	8000536 <__udivmoddi4+0x2aa>
 800045e:	45a2      	cmp	sl, r4
 8000460:	d969      	bls.n	8000536 <__udivmoddi4+0x2aa>
 8000462:	3802      	subs	r0, #2
 8000464:	4474      	add	r4, lr
 8000466:	ea40 4009 	orr.w	r0, r0, r9, lsl #16
 800046a:	fba0 8902 	umull	r8, r9, r0, r2
 800046e:	eba4 040a 	sub.w	r4, r4, sl
 8000472:	454c      	cmp	r4, r9
 8000474:	46c2      	mov	sl, r8
 8000476:	464b      	mov	r3, r9
 8000478:	d354      	bcc.n	8000524 <__udivmoddi4+0x298>
 800047a:	d051      	beq.n	8000520 <__udivmoddi4+0x294>
 800047c:	2e00      	cmp	r6, #0
 800047e:	d069      	beq.n	8000554 <__udivmoddi4+0x2c8>
 8000480:	ebb1 050a 	subs.w	r5, r1, sl
 8000484:	eb64 0403 	sbc.w	r4, r4, r3
 8000488:	fa04 fc0c 	lsl.w	ip, r4, ip
 800048c:	40fd      	lsrs	r5, r7
 800048e:	40fc      	lsrs	r4, r7
 8000490:	ea4c 0505 	orr.w	r5, ip, r5
 8000494:	e9c6 5400 	strd	r5, r4, [r6]
 8000498:	2700      	movs	r7, #0
 800049a:	e747      	b.n	800032c <__udivmoddi4+0xa0>
 800049c:	f1c2 0320 	rsb	r3, r2, #32
 80004a0:	fa20 f703 	lsr.w	r7, r0, r3
 80004a4:	4095      	lsls	r5, r2
 80004a6:	fa01 f002 	lsl.w	r0, r1, r2
 80004aa:	fa21 f303 	lsr.w	r3, r1, r3
 80004ae:	ea4f 4e15 	mov.w	lr, r5, lsr #16
 80004b2:	4338      	orrs	r0, r7
 80004b4:	0c01      	lsrs	r1, r0, #16
 80004b6:	fbb3 f7fe 	udiv	r7, r3, lr
 80004ba:	fa1f f885 	uxth.w	r8, r5
 80004be:	fb0e 3317 	mls	r3, lr, r7, r3
 80004c2:	ea41 4103 	orr.w	r1, r1, r3, lsl #16
 80004c6:	fb07 f308 	mul.w	r3, r7, r8
 80004ca:	428b      	cmp	r3, r1
 80004cc:	fa04 f402 	lsl.w	r4, r4, r2
 80004d0:	d907      	bls.n	80004e2 <__udivmoddi4+0x256>
 80004d2:	1869      	adds	r1, r5, r1
 80004d4:	f107 3cff 	add.w	ip, r7, #4294967295
 80004d8:	d22f      	bcs.n	800053a <__udivmoddi4+0x2ae>
 80004da:	428b      	cmp	r3, r1
 80004dc:	d92d      	bls.n	800053a <__udivmoddi4+0x2ae>
 80004de:	3f02      	subs	r7, #2
 80004e0:	4429      	add	r1, r5
 80004e2:	1acb      	subs	r3, r1, r3
 80004e4:	b281      	uxth	r1, r0
 80004e6:	fbb3 f0fe 	udiv	r0, r3, lr
 80004ea:	fb0e 3310 	mls	r3, lr, r0, r3
 80004ee:	ea41 4103 	orr.w	r1, r1, r3, lsl #16
 80004f2:	fb00 f308 	mul.w	r3, r0, r8
 80004f6:	428b      	cmp	r3, r1
 80004f8:	d907      	bls.n	800050a <__udivmoddi4+0x27e>
 80004fa:	1869      	adds	r1, r5, r1
 80004fc:	f100 3cff 	add.w	ip, r0, #4294967295
 8000500:	d217      	bcs.n	8000532 <__udivmoddi4+0x2a6>
 8000502:	428b      	cmp	r3, r1
 8000504:	d915      	bls.n	8000532 <__udivmoddi4+0x2a6>
 8000506:	3802      	subs	r0, #2
 8000508:	4429      	add	r1, r5
 800050a:	1ac9      	subs	r1, r1, r3
 800050c:	ea40 4707 	orr.w	r7, r0, r7, lsl #16
 8000510:	e73b      	b.n	800038a <__udivmoddi4+0xfe>
 8000512:	4637      	mov	r7, r6
 8000514:	4630      	mov	r0, r6
 8000516:	e709      	b.n	800032c <__udivmoddi4+0xa0>
 8000518:	4607      	mov	r7, r0
 800051a:	e6e7      	b.n	80002ec <__udivmoddi4+0x60>
 800051c:	4618      	mov	r0, r3
 800051e:	e6fb      	b.n	8000318 <__udivmoddi4+0x8c>
 8000520:	4541      	cmp	r1, r8
 8000522:	d2ab      	bcs.n	800047c <__udivmoddi4+0x1f0>
 8000524:	ebb8 0a02 	subs.w	sl, r8, r2
 8000528:	eb69 020e 	sbc.w	r2, r9, lr
 800052c:	3801      	subs	r0, #1
 800052e:	4613      	mov	r3, r2
 8000530:	e7a4      	b.n	800047c <__udivmoddi4+0x1f0>
 8000532:	4660      	mov	r0, ip
 8000534:	e7e9      	b.n	800050a <__udivmoddi4+0x27e>
 8000536:	4618      	mov	r0, r3
 8000538:	e795      	b.n	8000466 <__udivmoddi4+0x1da>
 800053a:	4667      	mov	r7, ip
 800053c:	e7d1      	b.n	80004e2 <__udivmoddi4+0x256>
 800053e:	4681      	mov	r9, r0
 8000540:	e77c      	b.n	800043c <__udivmoddi4+0x1b0>
 8000542:	3802      	subs	r0, #2
 8000544:	442c      	add	r4, r5
 8000546:	e747      	b.n	80003d8 <__udivmoddi4+0x14c>
 8000548:	f1ac 0c02 	sub.w	ip, ip, #2
 800054c:	442b      	add	r3, r5
 800054e:	e72f      	b.n	80003b0 <__udivmoddi4+0x124>
 8000550:	4638      	mov	r0, r7
 8000552:	e708      	b.n	8000366 <__udivmoddi4+0xda>
 8000554:	4637      	mov	r7, r6
 8000556:	e6e9      	b.n	800032c <__udivmoddi4+0xa0>

08000558 <__aeabi_idiv0>:
 8000558:	4770      	bx	lr
 800055a:	bf00      	nop

0800055c <configureTimerForRunTimeStats>:
 800055c:	4770      	bx	lr

0800055e <getRunTimeCounterValue>:
 800055e:	2000      	movs	r0, #0
 8000560:	4770      	bx	lr

08000562 <StartMockDataTask>:
 8000562:	b508      	push	{r3, lr}
 8000564:	f44f 70fa 	mov.w	r0, #500	; 0x1f4
 8000568:	f001 fea4 	bl	80022b4 <osDelay>
 800056c:	e7fa      	b.n	8000564 <StartMockDataTask+0x2>
	...

08000570 <StartUpdateTim1>:
 8000570:	e92d 47f0 	stmdb	sp!, {r4, r5, r6, r7, r8, r9, sl, lr}
 8000574:	4f13      	ldr	r7, [pc, #76]	; (80005c4 <StartUpdateTim1+0x54>)
 8000576:	4c14      	ldr	r4, [pc, #80]	; (80005c8 <StartUpdateTim1+0x58>)
 8000578:	f8df 8054 	ldr.w	r8, [pc, #84]	; 80005d0 <StartUpdateTim1+0x60>
 800057c:	6838      	ldr	r0, [r7, #0]
 800057e:	f44f 61fa 	mov.w	r1, #2000	; 0x7d0
 8000582:	f001 ff07 	bl	8002394 <osSemaphoreAcquire>
 8000586:	b9b8      	cbnz	r0, 80005b8 <StartUpdateTim1+0x48>
 8000588:	4640      	mov	r0, r8
 800058a:	f894 a000 	ldrb.w	sl, [r4]
 800058e:	f894 9001 	ldrb.w	r9, [r4, #1]
 8000592:	78a6      	ldrb	r6, [r4, #2]
 8000594:	78e5      	ldrb	r5, [r4, #3]
 8000596:	f004 fd8b 	bl	80050b0 <SEGGER_SYSVIEW_Print>
 800059a:	4b0c      	ldr	r3, [pc, #48]	; (80005cc <StartUpdateTim1+0x5c>)
 800059c:	681b      	ldr	r3, [r3, #0]
 800059e:	ea4f 0a8a 	mov.w	sl, sl, lsl #2
 80005a2:	ea4f 0989 	mov.w	r9, r9, lsl #2
 80005a6:	00b6      	lsls	r6, r6, #2
 80005a8:	00ad      	lsls	r5, r5, #2
 80005aa:	f8c3 a034 	str.w	sl, [r3, #52]	; 0x34
 80005ae:	f8c3 9038 	str.w	r9, [r3, #56]	; 0x38
 80005b2:	63de      	str	r6, [r3, #60]	; 0x3c
 80005b4:	641d      	str	r5, [r3, #64]	; 0x40
 80005b6:	e7e1      	b.n	800057c <StartUpdateTim1+0xc>
 80005b8:	f44f 70fa 	mov.w	r0, #500	; 0x1f4
 80005bc:	f001 fe7a 	bl	80022b4 <osDelay>
 80005c0:	e7dc      	b.n	800057c <StartUpdateTim1+0xc>
 80005c2:	bf00      	nop
 80005c4:	200054a0 	.word	0x200054a0
 80005c8:	2000002c 	.word	0x2000002c
 80005cc:	20005370 	.word	0x20005370
 80005d0:	080052fa 	.word	0x080052fa

080005d4 <Reset_UART2>:
 80005d4:	2204      	movs	r2, #4
 80005d6:	4902      	ldr	r1, [pc, #8]	; (80005e0 <Reset_UART2+0xc>)
 80005d8:	4802      	ldr	r0, [pc, #8]	; (80005e4 <Reset_UART2+0x10>)
 80005da:	f001 bd47 	b.w	800206c <HAL_UART_Receive_DMA>
 80005de:	bf00      	nop
 80005e0:	2000002c 	.word	0x2000002c
 80005e4:	20005438 	.word	0x20005438

080005e8 <OnMessage>:
 80005e8:	4b01      	ldr	r3, [pc, #4]	; (80005f0 <OnMessage+0x8>)
 80005ea:	6818      	ldr	r0, [r3, #0]
 80005ec:	f001 bf0e 	b.w	800240c <osSemaphoreRelease>
 80005f0:	200054a0 	.word	0x200054a0

080005f4 <HAL_TIM_PeriodElapsedCallback>:
 80005f4:	6803      	ldr	r3, [r0, #0]
 80005f6:	f1b3 4f80 	cmp.w	r3, #1073741824	; 0x40000000
 80005fa:	d101      	bne.n	8000600 <HAL_TIM_PeriodElapsedCallback+0xc>
 80005fc:	f000 bb9e 	b.w	8000d3c <HAL_IncTick>
 8000600:	4770      	bx	lr
	...

08000604 <Error_Handler>:
 8000604:	4801      	ldr	r0, [pc, #4]	; (800060c <Error_Handler+0x8>)
 8000606:	f004 bd53 	b.w	80050b0 <SEGGER_SYSVIEW_Print>
 800060a:	bf00      	nop
 800060c:	080052ec 	.word	0x080052ec

08000610 <SystemClock_Config>:
 8000610:	b510      	push	{r4, lr}
 8000612:	b094      	sub	sp, #80	; 0x50
 8000614:	222c      	movs	r2, #44	; 0x2c
 8000616:	2100      	movs	r1, #0
 8000618:	a809      	add	r0, sp, #36	; 0x24
 800061a:	f004 fe4b 	bl	80052b4 <memset>
 800061e:	2214      	movs	r2, #20
 8000620:	2100      	movs	r1, #0
 8000622:	a803      	add	r0, sp, #12
 8000624:	f004 fe46 	bl	80052b4 <memset>
 8000628:	2400      	movs	r4, #0
 800062a:	4b19      	ldr	r3, [pc, #100]	; (8000690 <SystemClock_Config+0x80>)
 800062c:	9401      	str	r4, [sp, #4]
 800062e:	6c1a      	ldr	r2, [r3, #64]	; 0x40
 8000630:	f042 5280 	orr.w	r2, r2, #268435456	; 0x10000000
 8000634:	641a      	str	r2, [r3, #64]	; 0x40
 8000636:	6c1b      	ldr	r3, [r3, #64]	; 0x40
 8000638:	f003 5380 	and.w	r3, r3, #268435456	; 0x10000000
 800063c:	9301      	str	r3, [sp, #4]
 800063e:	9b01      	ldr	r3, [sp, #4]
 8000640:	4b14      	ldr	r3, [pc, #80]	; (8000694 <SystemClock_Config+0x84>)
 8000642:	9402      	str	r4, [sp, #8]
 8000644:	681a      	ldr	r2, [r3, #0]
 8000646:	f442 4280 	orr.w	r2, r2, #16384	; 0x4000
 800064a:	601a      	str	r2, [r3, #0]
 800064c:	681b      	ldr	r3, [r3, #0]
 800064e:	940e      	str	r4, [sp, #56]	; 0x38
 8000650:	f403 4380 	and.w	r3, r3, #16384	; 0x4000
 8000654:	9302      	str	r3, [sp, #8]
 8000656:	9b02      	ldr	r3, [sp, #8]
 8000658:	2302      	movs	r3, #2
 800065a:	9308      	str	r3, [sp, #32]
 800065c:	2101      	movs	r1, #1
 800065e:	2310      	movs	r3, #16
 8000660:	a808      	add	r0, sp, #32
 8000662:	e9cd 130b 	strd	r1, r3, [sp, #44]	; 0x2c
 8000666:	f000 febd 	bl	80013e4 <HAL_RCC_OscConfig>
 800066a:	b108      	cbz	r0, 8000670 <SystemClock_Config+0x60>
 800066c:	f7ff ffca 	bl	8000604 <Error_Handler>
 8000670:	230f      	movs	r3, #15
 8000672:	2100      	movs	r1, #0
 8000674:	a803      	add	r0, sp, #12
 8000676:	e9cd 3403 	strd	r3, r4, [sp, #12]
 800067a:	e9cd 4405 	strd	r4, r4, [sp, #20]
 800067e:	9407      	str	r4, [sp, #28]
 8000680:	f001 f884 	bl	800178c <HAL_RCC_ClockConfig>
 8000684:	b108      	cbz	r0, 800068a <SystemClock_Config+0x7a>
 8000686:	f7ff ffbd 	bl	8000604 <Error_Handler>
 800068a:	b014      	add	sp, #80	; 0x50
 800068c:	bd10      	pop	{r4, pc}
 800068e:	bf00      	nop
 8000690:	40023800 	.word	0x40023800
 8000694:	40007000 	.word	0x40007000

08000698 <main>:
 8000698:	b500      	push	{lr}
 800069a:	b08f      	sub	sp, #60	; 0x3c
 800069c:	2400      	movs	r4, #0
 800069e:	4d9f      	ldr	r5, [pc, #636]	; (800091c <main+0x284>)
 80006a0:	f000 fb32 	bl	8000d08 <HAL_Init>
 80006a4:	f7ff ffb4 	bl	8000610 <SystemClock_Config>
 80006a8:	f004 fd46 	bl	8005138 <SEGGER_SYSVIEW_Conf>
 80006ac:	2214      	movs	r2, #20
 80006ae:	2100      	movs	r1, #0
 80006b0:	a807      	add	r0, sp, #28
 80006b2:	f004 fdff 	bl	80052b4 <memset>
 80006b6:	9401      	str	r4, [sp, #4]
 80006b8:	6b2b      	ldr	r3, [r5, #48]	; 0x30
 80006ba:	4899      	ldr	r0, [pc, #612]	; (8000920 <main+0x288>)
 80006bc:	f043 0301 	orr.w	r3, r3, #1
 80006c0:	632b      	str	r3, [r5, #48]	; 0x30
 80006c2:	6b2b      	ldr	r3, [r5, #48]	; 0x30
 80006c4:	f003 0301 	and.w	r3, r3, #1
 80006c8:	9301      	str	r3, [sp, #4]
 80006ca:	9b01      	ldr	r3, [sp, #4]
 80006cc:	9402      	str	r4, [sp, #8]
 80006ce:	6b2b      	ldr	r3, [r5, #48]	; 0x30
 80006d0:	f043 0302 	orr.w	r3, r3, #2
 80006d4:	632b      	str	r3, [r5, #48]	; 0x30
 80006d6:	6b2b      	ldr	r3, [r5, #48]	; 0x30
 80006d8:	f003 0302 	and.w	r3, r3, #2
 80006dc:	9302      	str	r3, [sp, #8]
 80006de:	9b02      	ldr	r3, [sp, #8]
 80006e0:	9403      	str	r4, [sp, #12]
 80006e2:	6b2b      	ldr	r3, [r5, #48]	; 0x30
 80006e4:	f043 0308 	orr.w	r3, r3, #8
 80006e8:	632b      	str	r3, [r5, #48]	; 0x30
 80006ea:	6b2b      	ldr	r3, [r5, #48]	; 0x30
 80006ec:	f003 0308 	and.w	r3, r3, #8
 80006f0:	9303      	str	r3, [sp, #12]
 80006f2:	9b03      	ldr	r3, [sp, #12]
 80006f4:	9404      	str	r4, [sp, #16]
 80006f6:	6b2b      	ldr	r3, [r5, #48]	; 0x30
 80006f8:	f043 0304 	orr.w	r3, r3, #4
 80006fc:	632b      	str	r3, [r5, #48]	; 0x30
 80006fe:	6b2b      	ldr	r3, [r5, #48]	; 0x30
 8000700:	f003 0304 	and.w	r3, r3, #4
 8000704:	9304      	str	r3, [sp, #16]
 8000706:	4622      	mov	r2, r4
 8000708:	21c0      	movs	r1, #192	; 0xc0
 800070a:	9b04      	ldr	r3, [sp, #16]
 800070c:	f000 fe64 	bl	80013d8 <HAL_GPIO_WritePin>
 8000710:	4622      	mov	r2, r4
 8000712:	f44f 417f 	mov.w	r1, #65280	; 0xff00
 8000716:	4883      	ldr	r0, [pc, #524]	; (8000924 <main+0x28c>)
 8000718:	f000 fe5e 	bl	80013d8 <HAL_GPIO_WritePin>
 800071c:	4622      	mov	r2, r4
 800071e:	2140      	movs	r1, #64	; 0x40
 8000720:	4881      	ldr	r0, [pc, #516]	; (8000928 <main+0x290>)
 8000722:	f000 fe59 	bl	80013d8 <HAL_GPIO_WritePin>
 8000726:	2601      	movs	r6, #1
 8000728:	23c0      	movs	r3, #192	; 0xc0
 800072a:	a907      	add	r1, sp, #28
 800072c:	487c      	ldr	r0, [pc, #496]	; (8000920 <main+0x288>)
 800072e:	e9cd 3607 	strd	r3, r6, [sp, #28]
 8000732:	e9cd 4409 	strd	r4, r4, [sp, #36]	; 0x24
 8000736:	f000 fd6f 	bl	8001218 <HAL_GPIO_Init>
 800073a:	f44f 437f 	mov.w	r3, #65280	; 0xff00
 800073e:	a907      	add	r1, sp, #28
 8000740:	4878      	ldr	r0, [pc, #480]	; (8000924 <main+0x28c>)
 8000742:	e9cd 3607 	strd	r3, r6, [sp, #28]
 8000746:	e9cd 4409 	strd	r4, r4, [sp, #36]	; 0x24
 800074a:	f000 fd65 	bl	8001218 <HAL_GPIO_Init>
 800074e:	2340      	movs	r3, #64	; 0x40
 8000750:	a907      	add	r1, sp, #28
 8000752:	4875      	ldr	r0, [pc, #468]	; (8000928 <main+0x290>)
 8000754:	e9cd 3607 	strd	r3, r6, [sp, #28]
 8000758:	e9cd 4409 	strd	r4, r4, [sp, #36]	; 0x24
 800075c:	f000 fd5c 	bl	8001218 <HAL_GPIO_Init>
 8000760:	9400      	str	r4, [sp, #0]
 8000762:	6b2b      	ldr	r3, [r5, #48]	; 0x30
 8000764:	f443 1300 	orr.w	r3, r3, #2097152	; 0x200000
 8000768:	632b      	str	r3, [r5, #48]	; 0x30
 800076a:	6b2b      	ldr	r3, [r5, #48]	; 0x30
 800076c:	f403 1300 	and.w	r3, r3, #2097152	; 0x200000
 8000770:	9300      	str	r3, [sp, #0]
 8000772:	4622      	mov	r2, r4
 8000774:	2106      	movs	r1, #6
 8000776:	2010      	movs	r0, #16
 8000778:	9b00      	ldr	r3, [sp, #0]
 800077a:	f000 fb7f 	bl	8000e7c <HAL_NVIC_SetPriority>
 800077e:	2010      	movs	r0, #16
 8000780:	f000 fbb0 	bl	8000ee4 <HAL_NVIC_EnableIRQ>
 8000784:	4869      	ldr	r0, [pc, #420]	; (800092c <main+0x294>)
 8000786:	f8df c1e8 	ldr.w	ip, [pc, #488]	; 8000970 <main+0x2d8>
 800078a:	7604      	strb	r4, [r0, #24]
 800078c:	2310      	movs	r3, #16
 800078e:	e9c0 c300 	strd	ip, r3, [r0]
 8000792:	e9c0 4402 	strd	r4, r4, [r0, #8]
 8000796:	e9c0 4404 	strd	r4, r4, [r0, #16]
 800079a:	7644      	strb	r4, [r0, #25]
 800079c:	7684      	strb	r4, [r0, #26]
 800079e:	76c4      	strb	r4, [r0, #27]
 80007a0:	7704      	strb	r4, [r0, #28]
 80007a2:	7744      	strb	r4, [r0, #29]
 80007a4:	f000 fadc 	bl	8000d60 <HAL_CAN_Init>
 80007a8:	b108      	cbz	r0, 80007ae <main+0x116>
 80007aa:	f7ff ff2b 	bl	8000604 <Error_Handler>
 80007ae:	4860      	ldr	r0, [pc, #384]	; (8000930 <main+0x298>)
 80007b0:	4e60      	ldr	r6, [pc, #384]	; (8000934 <main+0x29c>)
 80007b2:	f44f 33e1 	mov.w	r3, #115200	; 0x1c200
 80007b6:	e9c0 6300 	strd	r6, r3, [r0]
 80007ba:	220c      	movs	r2, #12
 80007bc:	2300      	movs	r3, #0
 80007be:	e9c0 3302 	strd	r3, r3, [r0, #8]
 80007c2:	6103      	str	r3, [r0, #16]
 80007c4:	e9c0 2305 	strd	r2, r3, [r0, #20]
 80007c8:	61c3      	str	r3, [r0, #28]
 80007ca:	f001 fc21 	bl	8002010 <HAL_UART_Init>
 80007ce:	b108      	cbz	r0, 80007d4 <main+0x13c>
 80007d0:	f7ff ff18 	bl	8000604 <Error_Handler>
 80007d4:	4858      	ldr	r0, [pc, #352]	; (8000938 <main+0x2a0>)
 80007d6:	4d59      	ldr	r5, [pc, #356]	; (800093c <main+0x2a4>)
 80007d8:	f44f 33e1 	mov.w	r3, #115200	; 0x1c200
 80007dc:	e9c0 5300 	strd	r5, r3, [r0]
 80007e0:	220c      	movs	r2, #12
 80007e2:	2300      	movs	r3, #0
 80007e4:	e9c0 3302 	strd	r3, r3, [r0, #8]
 80007e8:	6103      	str	r3, [r0, #16]
 80007ea:	e9c0 2305 	strd	r2, r3, [r0, #20]
 80007ee:	61c3      	str	r3, [r0, #28]
 80007f0:	f001 fc0e 	bl	8002010 <HAL_UART_Init>
 80007f4:	b108      	cbz	r0, 80007fa <main+0x162>
 80007f6:	f7ff ff05 	bl	8000604 <Error_Handler>
 80007fa:	4851      	ldr	r0, [pc, #324]	; (8000940 <main+0x2a8>)
 80007fc:	4c51      	ldr	r4, [pc, #324]	; (8000944 <main+0x2ac>)
 80007fe:	f44f 33e1 	mov.w	r3, #115200	; 0x1c200
 8000802:	e9c0 4300 	strd	r4, r3, [r0]
 8000806:	2400      	movs	r4, #0
 8000808:	230c      	movs	r3, #12
 800080a:	e9c0 4402 	strd	r4, r4, [r0, #8]
 800080e:	6104      	str	r4, [r0, #16]
 8000810:	e9c0 3405 	strd	r3, r4, [r0, #20]
 8000814:	61c4      	str	r4, [r0, #28]
 8000816:	f001 fbfb 	bl	8002010 <HAL_UART_Init>
 800081a:	b108      	cbz	r0, 8000820 <main+0x188>
 800081c:	f7ff fef2 	bl	8000604 <Error_Handler>
 8000820:	221c      	movs	r2, #28
 8000822:	2100      	movs	r1, #0
 8000824:	eb0d 0002 	add.w	r0, sp, r2
 8000828:	e9cd 4405 	strd	r4, r4, [sp, #20]
 800082c:	f004 fd42 	bl	80052b4 <memset>
 8000830:	4845      	ldr	r0, [pc, #276]	; (8000948 <main+0x2b0>)
 8000832:	4946      	ldr	r1, [pc, #280]	; (800094c <main+0x2b4>)
 8000834:	6084      	str	r4, [r0, #8]
 8000836:	2310      	movs	r3, #16
 8000838:	e9c0 1300 	strd	r1, r3, [r0]
 800083c:	f44f 6380 	mov.w	r3, #1024	; 0x400
 8000840:	e9c0 3403 	strd	r3, r4, [r0, #12]
 8000844:	6184      	str	r4, [r0, #24]
 8000846:	f001 fa3f 	bl	8001cc8 <HAL_TIM_PWM_Init>
 800084a:	b108      	cbz	r0, 8000850 <main+0x1b8>
 800084c:	f7ff feda 	bl	8000604 <Error_Handler>
 8000850:	2300      	movs	r3, #0
 8000852:	a905      	add	r1, sp, #20
 8000854:	483c      	ldr	r0, [pc, #240]	; (8000948 <main+0x2b0>)
 8000856:	e9cd 3305 	strd	r3, r3, [sp, #20]
 800085a:	f001 fb17 	bl	8001e8c <HAL_TIMEx_MasterConfigSynchronization>
 800085e:	b108      	cbz	r0, 8000864 <main+0x1cc>
 8000860:	f7ff fed0 	bl	8000604 <Error_Handler>
 8000864:	2400      	movs	r4, #0
 8000866:	2260      	movs	r2, #96	; 0x60
 8000868:	230a      	movs	r3, #10
 800086a:	e9cd 2307 	strd	r2, r3, [sp, #28]
 800086e:	a907      	add	r1, sp, #28
 8000870:	4622      	mov	r2, r4
 8000872:	4835      	ldr	r0, [pc, #212]	; (8000948 <main+0x2b0>)
 8000874:	9409      	str	r4, [sp, #36]	; 0x24
 8000876:	940b      	str	r4, [sp, #44]	; 0x2c
 8000878:	f001 fa76 	bl	8001d68 <HAL_TIM_PWM_ConfigChannel>
 800087c:	b108      	cbz	r0, 8000882 <main+0x1ea>
 800087e:	f7ff fec1 	bl	8000604 <Error_Handler>
 8000882:	2204      	movs	r2, #4
 8000884:	a907      	add	r1, sp, #28
 8000886:	4830      	ldr	r0, [pc, #192]	; (8000948 <main+0x2b0>)
 8000888:	9408      	str	r4, [sp, #32]
 800088a:	f001 fa6d 	bl	8001d68 <HAL_TIM_PWM_ConfigChannel>
 800088e:	b108      	cbz	r0, 8000894 <main+0x1fc>
 8000890:	f7ff feb8 	bl	8000604 <Error_Handler>
 8000894:	2208      	movs	r2, #8
 8000896:	a907      	add	r1, sp, #28
 8000898:	482b      	ldr	r0, [pc, #172]	; (8000948 <main+0x2b0>)
 800089a:	f001 fa65 	bl	8001d68 <HAL_TIM_PWM_ConfigChannel>
 800089e:	b108      	cbz	r0, 80008a4 <main+0x20c>
 80008a0:	f7ff feb0 	bl	8000604 <Error_Handler>
 80008a4:	220c      	movs	r2, #12
 80008a6:	a907      	add	r1, sp, #28
 80008a8:	4827      	ldr	r0, [pc, #156]	; (8000948 <main+0x2b0>)
 80008aa:	f001 fa5d 	bl	8001d68 <HAL_TIM_PWM_ConfigChannel>
 80008ae:	b108      	cbz	r0, 80008b4 <main+0x21c>
 80008b0:	f7ff fea8 	bl	8000604 <Error_Handler>
 80008b4:	4824      	ldr	r0, [pc, #144]	; (8000948 <main+0x2b0>)
 80008b6:	f000 f8c7 	bl	8000a48 <HAL_TIM_MspPostInit>
 80008ba:	f7ff fe8b 	bl	80005d4 <Reset_UART2>
 80008be:	2100      	movs	r1, #0
 80008c0:	4821      	ldr	r0, [pc, #132]	; (8000948 <main+0x2b0>)
 80008c2:	f001 fae1 	bl	8001e88 <HAL_TIM_PWM_Start>
 80008c6:	2104      	movs	r1, #4
 80008c8:	481f      	ldr	r0, [pc, #124]	; (8000948 <main+0x2b0>)
 80008ca:	f001 fadd 	bl	8001e88 <HAL_TIM_PWM_Start>
 80008ce:	2108      	movs	r1, #8
 80008d0:	481d      	ldr	r0, [pc, #116]	; (8000948 <main+0x2b0>)
 80008d2:	f001 fad9 	bl	8001e88 <HAL_TIM_PWM_Start>
 80008d6:	210c      	movs	r1, #12
 80008d8:	481b      	ldr	r0, [pc, #108]	; (8000948 <main+0x2b0>)
 80008da:	f001 fad5 	bl	8001e88 <HAL_TIM_PWM_Start>
 80008de:	2200      	movs	r2, #0
 80008e0:	2140      	movs	r1, #64	; 0x40
 80008e2:	480f      	ldr	r0, [pc, #60]	; (8000920 <main+0x288>)
 80008e4:	f000 fd78 	bl	80013d8 <HAL_GPIO_WritePin>
 80008e8:	f001 fc54 	bl	8002194 <osKernelInitialize>
 80008ec:	2101      	movs	r1, #1
 80008ee:	4a18      	ldr	r2, [pc, #96]	; (8000950 <main+0x2b8>)
 80008f0:	4608      	mov	r0, r1
 80008f2:	f001 fcf9 	bl	80022e8 <osSemaphoreNew>
 80008f6:	4b17      	ldr	r3, [pc, #92]	; (8000954 <main+0x2bc>)
 80008f8:	4a17      	ldr	r2, [pc, #92]	; (8000958 <main+0x2c0>)
 80008fa:	6018      	str	r0, [r3, #0]
 80008fc:	2100      	movs	r1, #0
 80008fe:	4817      	ldr	r0, [pc, #92]	; (800095c <main+0x2c4>)
 8000900:	f001 fc82 	bl	8002208 <osThreadNew>
 8000904:	4b16      	ldr	r3, [pc, #88]	; (8000960 <main+0x2c8>)
 8000906:	4a17      	ldr	r2, [pc, #92]	; (8000964 <main+0x2cc>)
 8000908:	6018      	str	r0, [r3, #0]
 800090a:	2100      	movs	r1, #0
 800090c:	4816      	ldr	r0, [pc, #88]	; (8000968 <main+0x2d0>)
 800090e:	f001 fc7b 	bl	8002208 <osThreadNew>
 8000912:	4b16      	ldr	r3, [pc, #88]	; (800096c <main+0x2d4>)
 8000914:	6018      	str	r0, [r3, #0]
 8000916:	f001 fc57 	bl	80021c8 <osKernelStart>
 800091a:	e7fe      	b.n	800091a <main+0x282>
 800091c:	40023800 	.word	0x40023800
 8000920:	40020000 	.word	0x40020000
 8000924:	40020c00 	.word	0x40020c00
 8000928:	40020800 	.word	0x40020800
 800092c:	20005478 	.word	0x20005478
 8000930:	200053f0 	.word	0x200053f0
 8000934:	40011000 	.word	0x40011000
 8000938:	20005438 	.word	0x20005438
 800093c:	40004400 	.word	0x40004400
 8000940:	200053b0 	.word	0x200053b0
 8000944:	40004800 	.word	0x40004800
 8000948:	20005370 	.word	0x20005370
 800094c:	40000800 	.word	0x40000800
 8000950:	08005310 	.word	0x08005310
 8000954:	200054a0 	.word	0x200054a0
 8000958:	0800534c 	.word	0x0800534c
 800095c:	08000563 	.word	0x08000563
 8000960:	20005434 	.word	0x20005434
 8000964:	08005370 	.word	0x08005370
 8000968:	08000571 	.word	0x08000571
 800096c:	20005430 	.word	0x20005430
 8000970:	40006400 	.word	0x40006400

08000974 <HAL_MspInit>:
 8000974:	b082      	sub	sp, #8
 8000976:	4b0c      	ldr	r3, [pc, #48]	; (80009a8 <HAL_MspInit+0x34>)
 8000978:	2100      	movs	r1, #0
 800097a:	9100      	str	r1, [sp, #0]
 800097c:	6c5a      	ldr	r2, [r3, #68]	; 0x44
 800097e:	f442 4280 	orr.w	r2, r2, #16384	; 0x4000
 8000982:	645a      	str	r2, [r3, #68]	; 0x44
 8000984:	6c5a      	ldr	r2, [r3, #68]	; 0x44
 8000986:	f402 4280 	and.w	r2, r2, #16384	; 0x4000
 800098a:	9200      	str	r2, [sp, #0]
 800098c:	9a00      	ldr	r2, [sp, #0]
 800098e:	9101      	str	r1, [sp, #4]
 8000990:	6c1a      	ldr	r2, [r3, #64]	; 0x40
 8000992:	f042 5280 	orr.w	r2, r2, #268435456	; 0x10000000
 8000996:	641a      	str	r2, [r3, #64]	; 0x40
 8000998:	6c1b      	ldr	r3, [r3, #64]	; 0x40
 800099a:	f003 5380 	and.w	r3, r3, #268435456	; 0x10000000
 800099e:	9301      	str	r3, [sp, #4]
 80009a0:	9b01      	ldr	r3, [sp, #4]
 80009a2:	b002      	add	sp, #8
 80009a4:	4770      	bx	lr
 80009a6:	bf00      	nop
 80009a8:	40023800 	.word	0x40023800

080009ac <HAL_CAN_MspInit>:
 80009ac:	b510      	push	{r4, lr}
 80009ae:	4604      	mov	r4, r0
 80009b0:	b088      	sub	sp, #32
 80009b2:	2214      	movs	r2, #20
 80009b4:	2100      	movs	r1, #0
 80009b6:	a803      	add	r0, sp, #12
 80009b8:	f004 fc7c 	bl	80052b4 <memset>
 80009bc:	6822      	ldr	r2, [r4, #0]
 80009be:	4b14      	ldr	r3, [pc, #80]	; (8000a10 <HAL_CAN_MspInit+0x64>)
 80009c0:	429a      	cmp	r2, r3
 80009c2:	d123      	bne.n	8000a0c <HAL_CAN_MspInit+0x60>
 80009c4:	f503 33ea 	add.w	r3, r3, #119808	; 0x1d400
 80009c8:	2100      	movs	r1, #0
 80009ca:	9101      	str	r1, [sp, #4]
 80009cc:	6c1a      	ldr	r2, [r3, #64]	; 0x40
 80009ce:	4811      	ldr	r0, [pc, #68]	; (8000a14 <HAL_CAN_MspInit+0x68>)
 80009d0:	f042 7200 	orr.w	r2, r2, #33554432	; 0x2000000
 80009d4:	641a      	str	r2, [r3, #64]	; 0x40
 80009d6:	6c1a      	ldr	r2, [r3, #64]	; 0x40
 80009d8:	f002 7200 	and.w	r2, r2, #33554432	; 0x2000000
 80009dc:	9201      	str	r2, [sp, #4]
 80009de:	9a01      	ldr	r2, [sp, #4]
 80009e0:	9102      	str	r1, [sp, #8]
 80009e2:	6b1a      	ldr	r2, [r3, #48]	; 0x30
 80009e4:	f042 0201 	orr.w	r2, r2, #1
 80009e8:	631a      	str	r2, [r3, #48]	; 0x30
 80009ea:	6b1b      	ldr	r3, [r3, #48]	; 0x30
 80009ec:	f003 0301 	and.w	r3, r3, #1
 80009f0:	9302      	str	r3, [sp, #8]
 80009f2:	9b02      	ldr	r3, [sp, #8]
 80009f4:	f44f 52c0 	mov.w	r2, #6144	; 0x1800
 80009f8:	2302      	movs	r3, #2
 80009fa:	2103      	movs	r1, #3
 80009fc:	e9cd 2303 	strd	r2, r3, [sp, #12]
 8000a00:	2309      	movs	r3, #9
 8000a02:	e9cd 1306 	strd	r1, r3, [sp, #24]
 8000a06:	a903      	add	r1, sp, #12
 8000a08:	f000 fc06 	bl	8001218 <HAL_GPIO_Init>
 8000a0c:	b008      	add	sp, #32
 8000a0e:	bd10      	pop	{r4, pc}
 8000a10:	40006400 	.word	0x40006400
 8000a14:	40020000 	.word	0x40020000

08000a18 <HAL_TIM_PWM_MspInit>:
 8000a18:	6802      	ldr	r2, [r0, #0]
 8000a1a:	4b09      	ldr	r3, [pc, #36]	; (8000a40 <HAL_TIM_PWM_MspInit+0x28>)
 8000a1c:	429a      	cmp	r2, r3
 8000a1e:	b082      	sub	sp, #8
 8000a20:	d10b      	bne.n	8000a3a <HAL_TIM_PWM_MspInit+0x22>
 8000a22:	2300      	movs	r3, #0
 8000a24:	9301      	str	r3, [sp, #4]
 8000a26:	4b07      	ldr	r3, [pc, #28]	; (8000a44 <HAL_TIM_PWM_MspInit+0x2c>)
 8000a28:	6c1a      	ldr	r2, [r3, #64]	; 0x40
 8000a2a:	f042 0204 	orr.w	r2, r2, #4
 8000a2e:	641a      	str	r2, [r3, #64]	; 0x40
 8000a30:	6c1b      	ldr	r3, [r3, #64]	; 0x40
 8000a32:	f003 0304 	and.w	r3, r3, #4
 8000a36:	9301      	str	r3, [sp, #4]
 8000a38:	9b01      	ldr	r3, [sp, #4]
 8000a3a:	b002      	add	sp, #8
 8000a3c:	4770      	bx	lr
 8000a3e:	bf00      	nop
 8000a40:	40000800 	.word	0x40000800
 8000a44:	40023800 	.word	0x40023800

08000a48 <HAL_TIM_MspPostInit>:
 8000a48:	b510      	push	{r4, lr}
 8000a4a:	4604      	mov	r4, r0
 8000a4c:	b086      	sub	sp, #24
 8000a4e:	2214      	movs	r2, #20
 8000a50:	2100      	movs	r1, #0
 8000a52:	a801      	add	r0, sp, #4
 8000a54:	f004 fc2e 	bl	80052b4 <memset>
 8000a58:	6822      	ldr	r2, [r4, #0]
 8000a5a:	4b0d      	ldr	r3, [pc, #52]	; (8000a90 <HAL_TIM_MspPostInit+0x48>)
 8000a5c:	429a      	cmp	r2, r3
 8000a5e:	d115      	bne.n	8000a8c <HAL_TIM_MspPostInit+0x44>
 8000a60:	2300      	movs	r3, #0
 8000a62:	9300      	str	r3, [sp, #0]
 8000a64:	4b0b      	ldr	r3, [pc, #44]	; (8000a94 <HAL_TIM_MspPostInit+0x4c>)
 8000a66:	480c      	ldr	r0, [pc, #48]	; (8000a98 <HAL_TIM_MspPostInit+0x50>)
 8000a68:	6b1a      	ldr	r2, [r3, #48]	; 0x30
 8000a6a:	f042 0202 	orr.w	r2, r2, #2
 8000a6e:	631a      	str	r2, [r3, #48]	; 0x30
 8000a70:	6b1b      	ldr	r3, [r3, #48]	; 0x30
 8000a72:	f003 0302 	and.w	r3, r3, #2
 8000a76:	9300      	str	r3, [sp, #0]
 8000a78:	9b00      	ldr	r3, [sp, #0]
 8000a7a:	f44f 7270 	mov.w	r2, #960	; 0x3c0
 8000a7e:	2302      	movs	r3, #2
 8000a80:	a901      	add	r1, sp, #4
 8000a82:	e9cd 2301 	strd	r2, r3, [sp, #4]
 8000a86:	9305      	str	r3, [sp, #20]
 8000a88:	f000 fbc6 	bl	8001218 <HAL_GPIO_Init>
 8000a8c:	b006      	add	sp, #24
 8000a8e:	bd10      	pop	{r4, pc}
 8000a90:	40000800 	.word	0x40000800
 8000a94:	40023800 	.word	0x40023800
 8000a98:	40020400 	.word	0x40020400

08000a9c <HAL_UART_MspInit>:
 8000a9c:	b570      	push	{r4, r5, r6, lr}
 8000a9e:	4606      	mov	r6, r0
 8000aa0:	b08c      	sub	sp, #48	; 0x30
 8000aa2:	2214      	movs	r2, #20
 8000aa4:	2100      	movs	r1, #0
 8000aa6:	a807      	add	r0, sp, #28
 8000aa8:	f004 fc04 	bl	80052b4 <memset>
 8000aac:	6833      	ldr	r3, [r6, #0]
 8000aae:	4a46      	ldr	r2, [pc, #280]	; (8000bc8 <HAL_UART_MspInit+0x12c>)
 8000ab0:	4293      	cmp	r3, r2
 8000ab2:	d123      	bne.n	8000afc <HAL_UART_MspInit+0x60>
 8000ab4:	4b45      	ldr	r3, [pc, #276]	; (8000bcc <HAL_UART_MspInit+0x130>)
 8000ab6:	4846      	ldr	r0, [pc, #280]	; (8000bd0 <HAL_UART_MspInit+0x134>)
 8000ab8:	2100      	movs	r1, #0
 8000aba:	9101      	str	r1, [sp, #4]
 8000abc:	6c5a      	ldr	r2, [r3, #68]	; 0x44
 8000abe:	f042 0210 	orr.w	r2, r2, #16
 8000ac2:	645a      	str	r2, [r3, #68]	; 0x44
 8000ac4:	6c5a      	ldr	r2, [r3, #68]	; 0x44
 8000ac6:	f002 0210 	and.w	r2, r2, #16
 8000aca:	9201      	str	r2, [sp, #4]
 8000acc:	9a01      	ldr	r2, [sp, #4]
 8000ace:	9102      	str	r1, [sp, #8]
 8000ad0:	6b1a      	ldr	r2, [r3, #48]	; 0x30
 8000ad2:	f042 0201 	orr.w	r2, r2, #1
 8000ad6:	631a      	str	r2, [r3, #48]	; 0x30
 8000ad8:	6b1b      	ldr	r3, [r3, #48]	; 0x30
 8000ada:	f003 0301 	and.w	r3, r3, #1
 8000ade:	9302      	str	r3, [sp, #8]
 8000ae0:	9b02      	ldr	r3, [sp, #8]
 8000ae2:	f44f 6ec0 	mov.w	lr, #1536	; 0x600
 8000ae6:	2302      	movs	r3, #2
 8000ae8:	e9cd e307 	strd	lr, r3, [sp, #28]
 8000aec:	2203      	movs	r2, #3
 8000aee:	2307      	movs	r3, #7
 8000af0:	e9cd 230a 	strd	r2, r3, [sp, #40]	; 0x28
 8000af4:	a907      	add	r1, sp, #28
 8000af6:	f000 fb8f 	bl	8001218 <HAL_GPIO_Init>
 8000afa:	e03d      	b.n	8000b78 <HAL_UART_MspInit+0xdc>
 8000afc:	4a35      	ldr	r2, [pc, #212]	; (8000bd4 <HAL_UART_MspInit+0x138>)
 8000afe:	4293      	cmp	r3, r2
 8000b00:	d13c      	bne.n	8000b7c <HAL_UART_MspInit+0xe0>
 8000b02:	2500      	movs	r5, #0
 8000b04:	4b31      	ldr	r3, [pc, #196]	; (8000bcc <HAL_UART_MspInit+0x130>)
 8000b06:	9503      	str	r5, [sp, #12]
 8000b08:	6c1a      	ldr	r2, [r3, #64]	; 0x40
 8000b0a:	f442 3200 	orr.w	r2, r2, #131072	; 0x20000
 8000b0e:	641a      	str	r2, [r3, #64]	; 0x40
 8000b10:	6c1a      	ldr	r2, [r3, #64]	; 0x40
 8000b12:	f402 3200 	and.w	r2, r2, #131072	; 0x20000
 8000b16:	9203      	str	r2, [sp, #12]
 8000b18:	9a03      	ldr	r2, [sp, #12]
 8000b1a:	9504      	str	r5, [sp, #16]
 8000b1c:	6b1a      	ldr	r2, [r3, #48]	; 0x30
 8000b1e:	f042 0201 	orr.w	r2, r2, #1
 8000b22:	631a      	str	r2, [r3, #48]	; 0x30
 8000b24:	6b1b      	ldr	r3, [r3, #48]	; 0x30
 8000b26:	f003 0301 	and.w	r3, r3, #1
 8000b2a:	9304      	str	r3, [sp, #16]
 8000b2c:	9b04      	ldr	r3, [sp, #16]
 8000b2e:	200c      	movs	r0, #12
 8000b30:	2302      	movs	r3, #2
 8000b32:	e9cd 0307 	strd	r0, r3, [sp, #28]
 8000b36:	2403      	movs	r4, #3
 8000b38:	2307      	movs	r3, #7
 8000b3a:	4825      	ldr	r0, [pc, #148]	; (8000bd0 <HAL_UART_MspInit+0x134>)
 8000b3c:	a907      	add	r1, sp, #28
 8000b3e:	e9cd 430a 	strd	r4, r3, [sp, #40]	; 0x28
 8000b42:	f000 fb69 	bl	8001218 <HAL_GPIO_Init>
 8000b46:	4c24      	ldr	r4, [pc, #144]	; (8000bd8 <HAL_UART_MspInit+0x13c>)
 8000b48:	f8df c098 	ldr.w	ip, [pc, #152]	; 8000be4 <HAL_UART_MspInit+0x148>
 8000b4c:	f04f 6300 	mov.w	r3, #134217728	; 0x8000000
 8000b50:	e9c4 c300 	strd	ip, r3, [r4]
 8000b54:	4620      	mov	r0, r4
 8000b56:	f44f 6380 	mov.w	r3, #1024	; 0x400
 8000b5a:	e9c4 5502 	strd	r5, r5, [r4, #8]
 8000b5e:	e9c4 3504 	strd	r3, r5, [r4, #16]
 8000b62:	e9c4 5506 	strd	r5, r5, [r4, #24]
 8000b66:	e9c4 5508 	strd	r5, r5, [r4, #32]
 8000b6a:	f000 f9df 	bl	8000f2c <HAL_DMA_Init>
 8000b6e:	b108      	cbz	r0, 8000b74 <HAL_UART_MspInit+0xd8>
 8000b70:	f7ff fd48 	bl	8000604 <Error_Handler>
 8000b74:	6374      	str	r4, [r6, #52]	; 0x34
 8000b76:	63a6      	str	r6, [r4, #56]	; 0x38
 8000b78:	b00c      	add	sp, #48	; 0x30
 8000b7a:	bd70      	pop	{r4, r5, r6, pc}
 8000b7c:	4a17      	ldr	r2, [pc, #92]	; (8000bdc <HAL_UART_MspInit+0x140>)
 8000b7e:	4293      	cmp	r3, r2
 8000b80:	d1fa      	bne.n	8000b78 <HAL_UART_MspInit+0xdc>
 8000b82:	4b12      	ldr	r3, [pc, #72]	; (8000bcc <HAL_UART_MspInit+0x130>)
 8000b84:	4816      	ldr	r0, [pc, #88]	; (8000be0 <HAL_UART_MspInit+0x144>)
 8000b86:	2100      	movs	r1, #0
 8000b88:	9105      	str	r1, [sp, #20]
 8000b8a:	6c1a      	ldr	r2, [r3, #64]	; 0x40
 8000b8c:	f442 2280 	orr.w	r2, r2, #262144	; 0x40000
 8000b90:	641a      	str	r2, [r3, #64]	; 0x40
 8000b92:	6c1a      	ldr	r2, [r3, #64]	; 0x40
 8000b94:	f402 2280 	and.w	r2, r2, #262144	; 0x40000
 8000b98:	9205      	str	r2, [sp, #20]
 8000b9a:	9a05      	ldr	r2, [sp, #20]
 8000b9c:	9106      	str	r1, [sp, #24]
 8000b9e:	6b1a      	ldr	r2, [r3, #48]	; 0x30
 8000ba0:	f042 0202 	orr.w	r2, r2, #2
 8000ba4:	631a      	str	r2, [r3, #48]	; 0x30
 8000ba6:	6b1b      	ldr	r3, [r3, #48]	; 0x30
 8000ba8:	f003 0302 	and.w	r3, r3, #2
 8000bac:	9306      	str	r3, [sp, #24]
 8000bae:	9b06      	ldr	r3, [sp, #24]
 8000bb0:	f44f 6240 	mov.w	r2, #3072	; 0xc00
 8000bb4:	2302      	movs	r3, #2
 8000bb6:	2103      	movs	r1, #3
 8000bb8:	e9cd 2307 	strd	r2, r3, [sp, #28]
 8000bbc:	2307      	movs	r3, #7
 8000bbe:	e9cd 130a 	strd	r1, r3, [sp, #40]	; 0x28
 8000bc2:	a907      	add	r1, sp, #28
 8000bc4:	e797      	b.n	8000af6 <HAL_UART_MspInit+0x5a>
 8000bc6:	bf00      	nop
 8000bc8:	40011000 	.word	0x40011000
 8000bcc:	40023800 	.word	0x40023800
 8000bd0:	40020000 	.word	0x40020000
 8000bd4:	40004400 	.word	0x40004400
 8000bd8:	20005310 	.word	0x20005310
 8000bdc:	40004800 	.word	0x40004800
 8000be0:	40020400 	.word	0x40020400
 8000be4:	40026088 	.word	0x40026088

08000be8 <HAL_InitTick>:
 8000be8:	b530      	push	{r4, r5, lr}
 8000bea:	4601      	mov	r1, r0
 8000bec:	b089      	sub	sp, #36	; 0x24
 8000bee:	2200      	movs	r2, #0
 8000bf0:	201c      	movs	r0, #28
 8000bf2:	f000 f943 	bl	8000e7c <HAL_NVIC_SetPriority>
 8000bf6:	201c      	movs	r0, #28
 8000bf8:	f000 f974 	bl	8000ee4 <HAL_NVIC_EnableIRQ>
 8000bfc:	2500      	movs	r5, #0
 8000bfe:	4b15      	ldr	r3, [pc, #84]	; (8000c54 <HAL_InitTick+0x6c>)
 8000c00:	9502      	str	r5, [sp, #8]
 8000c02:	6c1a      	ldr	r2, [r3, #64]	; 0x40
 8000c04:	4c14      	ldr	r4, [pc, #80]	; (8000c58 <HAL_InitTick+0x70>)
 8000c06:	f042 0201 	orr.w	r2, r2, #1
 8000c0a:	641a      	str	r2, [r3, #64]	; 0x40
 8000c0c:	6c1b      	ldr	r3, [r3, #64]	; 0x40
 8000c0e:	f003 0301 	and.w	r3, r3, #1
 8000c12:	9302      	str	r3, [sp, #8]
 8000c14:	a901      	add	r1, sp, #4
 8000c16:	a803      	add	r0, sp, #12
 8000c18:	9b02      	ldr	r3, [sp, #8]
 8000c1a:	f000 fe71 	bl	8001900 <HAL_RCC_GetClockConfig>
 8000c1e:	f000 fe4f 	bl	80018c0 <HAL_RCC_GetPCLK1Freq>
 8000c22:	f04f 4380 	mov.w	r3, #1073741824	; 0x40000000
 8000c26:	6023      	str	r3, [r4, #0]
 8000c28:	f240 33e7 	movw	r3, #999	; 0x3e7
 8000c2c:	60e3      	str	r3, [r4, #12]
 8000c2e:	4b0b      	ldr	r3, [pc, #44]	; (8000c5c <HAL_InitTick+0x74>)
 8000c30:	fbb0 f0f3 	udiv	r0, r0, r3
 8000c34:	3801      	subs	r0, #1
 8000c36:	6060      	str	r0, [r4, #4]
 8000c38:	4620      	mov	r0, r4
 8000c3a:	6125      	str	r5, [r4, #16]
 8000c3c:	60a5      	str	r5, [r4, #8]
 8000c3e:	f001 f829 	bl	8001c94 <HAL_TIM_Base_Init>
 8000c42:	b920      	cbnz	r0, 8000c4e <HAL_InitTick+0x66>
 8000c44:	4620      	mov	r0, r4
 8000c46:	f000 ff08 	bl	8001a5a <HAL_TIM_Base_Start_IT>
 8000c4a:	b009      	add	sp, #36	; 0x24
 8000c4c:	bd30      	pop	{r4, r5, pc}
 8000c4e:	2001      	movs	r0, #1
 8000c50:	e7fb      	b.n	8000c4a <HAL_InitTick+0x62>
 8000c52:	bf00      	nop
 8000c54:	40023800 	.word	0x40023800
 8000c58:	200054a4 	.word	0x200054a4
 8000c5c:	000f4240 	.word	0x000f4240

08000c60 <NMI_Handler>:
 8000c60:	4770      	bx	lr

08000c62 <HardFault_Handler>:
 8000c62:	e7fe      	b.n	8000c62 <HardFault_Handler>

08000c64 <MemManage_Handler>:
 8000c64:	e7fe      	b.n	8000c64 <MemManage_Handler>

08000c66 <BusFault_Handler>:
 8000c66:	e7fe      	b.n	8000c66 <BusFault_Handler>

08000c68 <UsageFault_Handler>:
 8000c68:	e7fe      	b.n	8000c68 <UsageFault_Handler>

08000c6a <DebugMon_Handler>:
 8000c6a:	4770      	bx	lr

08000c6c <DMA1_Stream5_IRQHandler>:
 8000c6c:	b508      	push	{r3, lr}
 8000c6e:	f004 f92d 	bl	8004ecc <SEGGER_SYSVIEW_RecordEnterISR>
 8000c72:	4805      	ldr	r0, [pc, #20]	; (8000c88 <DMA1_Stream5_IRQHandler+0x1c>)
 8000c74:	f000 fa12 	bl	800109c <HAL_DMA_IRQHandler>
 8000c78:	f7ff fcb6 	bl	80005e8 <OnMessage>
 8000c7c:	f7ff fcaa 	bl	80005d4 <Reset_UART2>
 8000c80:	e8bd 4008 	ldmia.w	sp!, {r3, lr}
 8000c84:	f004 b946 	b.w	8004f14 <SEGGER_SYSVIEW_RecordExitISR>
 8000c88:	20005310 	.word	0x20005310

08000c8c <TIM2_IRQHandler>:
 8000c8c:	4801      	ldr	r0, [pc, #4]	; (8000c94 <TIM2_IRQHandler+0x8>)
 8000c8e:	f000 bef8 	b.w	8001a82 <HAL_TIM_IRQHandler>
 8000c92:	bf00      	nop
 8000c94:	200054a4 	.word	0x200054a4

08000c98 <SystemInit>:
 8000c98:	4b05      	ldr	r3, [pc, #20]	; (8000cb0 <SystemInit+0x18>)
 8000c9a:	f8d3 2088 	ldr.w	r2, [r3, #136]	; 0x88
 8000c9e:	f442 0270 	orr.w	r2, r2, #15728640	; 0xf00000
 8000ca2:	f8c3 2088 	str.w	r2, [r3, #136]	; 0x88
 8000ca6:	f04f 6200 	mov.w	r2, #134217728	; 0x8000000
 8000caa:	609a      	str	r2, [r3, #8]
 8000cac:	4770      	bx	lr
 8000cae:	bf00      	nop
 8000cb0:	e000ed00 	.word	0xe000ed00

08000cb4 <Reset_Handler>:
 8000cb4:	f8df d034 	ldr.w	sp, [pc, #52]	; 8000cec <LoopFillZerobss+0x14>
 8000cb8:	2100      	movs	r1, #0
 8000cba:	e003      	b.n	8000cc4 <LoopCopyDataInit>

08000cbc <CopyDataInit>:
 8000cbc:	4b0c      	ldr	r3, [pc, #48]	; (8000cf0 <LoopFillZerobss+0x18>)
 8000cbe:	585b      	ldr	r3, [r3, r1]
 8000cc0:	5043      	str	r3, [r0, r1]
 8000cc2:	3104      	adds	r1, #4

08000cc4 <LoopCopyDataInit>:
 8000cc4:	480b      	ldr	r0, [pc, #44]	; (8000cf4 <LoopFillZerobss+0x1c>)
 8000cc6:	4b0c      	ldr	r3, [pc, #48]	; (8000cf8 <LoopFillZerobss+0x20>)
 8000cc8:	1842      	adds	r2, r0, r1
 8000cca:	429a      	cmp	r2, r3
 8000ccc:	d3f6      	bcc.n	8000cbc <CopyDataInit>
 8000cce:	4a0b      	ldr	r2, [pc, #44]	; (8000cfc <LoopFillZerobss+0x24>)
 8000cd0:	e002      	b.n	8000cd8 <LoopFillZerobss>

08000cd2 <FillZerobss>:
 8000cd2:	2300      	movs	r3, #0
 8000cd4:	f842 3b04 	str.w	r3, [r2], #4

08000cd8 <LoopFillZerobss>:
 8000cd8:	4b09      	ldr	r3, [pc, #36]	; (8000d00 <LoopFillZerobss+0x28>)
 8000cda:	429a      	cmp	r2, r3
 8000cdc:	d3f9      	bcc.n	8000cd2 <FillZerobss>
 8000cde:	f7ff ffdb 	bl	8000c98 <SystemInit>
 8000ce2:	f004 faa9 	bl	8005238 <__libc_init_array>
 8000ce6:	f7ff fcd7 	bl	8000698 <main>
 8000cea:	4770      	bx	lr
 8000cec:	20020000 	.word	0x20020000
 8000cf0:	08005494 	.word	0x08005494
 8000cf4:	20000000 	.word	0x20000000
 8000cf8:	20000010 	.word	0x20000010
 8000cfc:	20000010 	.word	0x20000010
 8000d00:	200055d0 	.word	0x200055d0

08000d04 <ADC_IRQHandler>:
 8000d04:	e7fe      	b.n	8000d04 <ADC_IRQHandler>
	...

08000d08 <HAL_Init>:
 8000d08:	b508      	push	{r3, lr}
 8000d0a:	4b0b      	ldr	r3, [pc, #44]	; (8000d38 <HAL_Init+0x30>)
 8000d0c:	681a      	ldr	r2, [r3, #0]
 8000d0e:	f442 7200 	orr.w	r2, r2, #512	; 0x200
 8000d12:	601a      	str	r2, [r3, #0]
 8000d14:	681a      	ldr	r2, [r3, #0]
 8000d16:	f442 6280 	orr.w	r2, r2, #1024	; 0x400
 8000d1a:	601a      	str	r2, [r3, #0]
 8000d1c:	681a      	ldr	r2, [r3, #0]
 8000d1e:	f442 7280 	orr.w	r2, r2, #256	; 0x100
 8000d22:	601a      	str	r2, [r3, #0]
 8000d24:	2003      	movs	r0, #3
 8000d26:	f000 f897 	bl	8000e58 <HAL_NVIC_SetPriorityGrouping>
 8000d2a:	2000      	movs	r0, #0
 8000d2c:	f7ff ff5c 	bl	8000be8 <HAL_InitTick>
 8000d30:	f7ff fe20 	bl	8000974 <HAL_MspInit>
 8000d34:	2000      	movs	r0, #0
 8000d36:	bd08      	pop	{r3, pc}
 8000d38:	40023c00 	.word	0x40023c00

08000d3c <HAL_IncTick>:
 8000d3c:	4a03      	ldr	r2, [pc, #12]	; (8000d4c <HAL_IncTick+0x10>)
 8000d3e:	4b04      	ldr	r3, [pc, #16]	; (8000d50 <HAL_IncTick+0x14>)
 8000d40:	6811      	ldr	r1, [r2, #0]
 8000d42:	781b      	ldrb	r3, [r3, #0]
 8000d44:	440b      	add	r3, r1
 8000d46:	6013      	str	r3, [r2, #0]
 8000d48:	4770      	bx	lr
 8000d4a:	bf00      	nop
 8000d4c:	200054e4 	.word	0x200054e4
 8000d50:	20000004 	.word	0x20000004

08000d54 <HAL_GetTick>:
 8000d54:	4b01      	ldr	r3, [pc, #4]	; (8000d5c <HAL_GetTick+0x8>)
 8000d56:	6818      	ldr	r0, [r3, #0]
 8000d58:	4770      	bx	lr
 8000d5a:	bf00      	nop
 8000d5c:	200054e4 	.word	0x200054e4

08000d60 <HAL_CAN_Init>:
 8000d60:	b538      	push	{r3, r4, r5, lr}
 8000d62:	4604      	mov	r4, r0
 8000d64:	2800      	cmp	r0, #0
 8000d66:	d06e      	beq.n	8000e46 <HAL_CAN_Init+0xe6>
 8000d68:	f890 3020 	ldrb.w	r3, [r0, #32]
 8000d6c:	b90b      	cbnz	r3, 8000d72 <HAL_CAN_Init+0x12>
 8000d6e:	f7ff fe1d 	bl	80009ac <HAL_CAN_MspInit>
 8000d72:	6822      	ldr	r2, [r4, #0]
 8000d74:	6813      	ldr	r3, [r2, #0]
 8000d76:	f023 0302 	bic.w	r3, r3, #2
 8000d7a:	6013      	str	r3, [r2, #0]
 8000d7c:	f7ff ffea 	bl	8000d54 <HAL_GetTick>
 8000d80:	4605      	mov	r5, r0
 8000d82:	6823      	ldr	r3, [r4, #0]
 8000d84:	685a      	ldr	r2, [r3, #4]
 8000d86:	0791      	lsls	r1, r2, #30
 8000d88:	d451      	bmi.n	8000e2e <HAL_CAN_Init+0xce>
 8000d8a:	681a      	ldr	r2, [r3, #0]
 8000d8c:	f042 0201 	orr.w	r2, r2, #1
 8000d90:	601a      	str	r2, [r3, #0]
 8000d92:	f7ff ffdf 	bl	8000d54 <HAL_GetTick>
 8000d96:	4605      	mov	r5, r0
 8000d98:	6823      	ldr	r3, [r4, #0]
 8000d9a:	685a      	ldr	r2, [r3, #4]
 8000d9c:	07d2      	lsls	r2, r2, #31
 8000d9e:	d554      	bpl.n	8000e4a <HAL_CAN_Init+0xea>
 8000da0:	7e22      	ldrb	r2, [r4, #24]
 8000da2:	2a01      	cmp	r2, #1
 8000da4:	681a      	ldr	r2, [r3, #0]
 8000da6:	bf0c      	ite	eq
 8000da8:	f042 0280 	orreq.w	r2, r2, #128	; 0x80
 8000dac:	f022 0280 	bicne.w	r2, r2, #128	; 0x80
 8000db0:	601a      	str	r2, [r3, #0]
 8000db2:	7e62      	ldrb	r2, [r4, #25]
 8000db4:	2a01      	cmp	r2, #1
 8000db6:	681a      	ldr	r2, [r3, #0]
 8000db8:	bf0c      	ite	eq
 8000dba:	f042 0240 	orreq.w	r2, r2, #64	; 0x40
 8000dbe:	f022 0240 	bicne.w	r2, r2, #64	; 0x40
 8000dc2:	601a      	str	r2, [r3, #0]
 8000dc4:	7ea2      	ldrb	r2, [r4, #26]
 8000dc6:	2a01      	cmp	r2, #1
 8000dc8:	681a      	ldr	r2, [r3, #0]
 8000dca:	bf0c      	ite	eq
 8000dcc:	f042 0220 	orreq.w	r2, r2, #32
 8000dd0:	f022 0220 	bicne.w	r2, r2, #32
 8000dd4:	601a      	str	r2, [r3, #0]
 8000dd6:	7ee2      	ldrb	r2, [r4, #27]
 8000dd8:	2a01      	cmp	r2, #1
 8000dda:	681a      	ldr	r2, [r3, #0]
 8000ddc:	bf0c      	ite	eq
 8000dde:	f022 0210 	biceq.w	r2, r2, #16
 8000de2:	f042 0210 	orrne.w	r2, r2, #16
 8000de6:	601a      	str	r2, [r3, #0]
 8000de8:	7f22      	ldrb	r2, [r4, #28]
 8000dea:	2a01      	cmp	r2, #1
 8000dec:	681a      	ldr	r2, [r3, #0]
 8000dee:	bf0c      	ite	eq
 8000df0:	f042 0208 	orreq.w	r2, r2, #8
 8000df4:	f022 0208 	bicne.w	r2, r2, #8
 8000df8:	601a      	str	r2, [r3, #0]
 8000dfa:	7f62      	ldrb	r2, [r4, #29]
 8000dfc:	2a01      	cmp	r2, #1
 8000dfe:	681a      	ldr	r2, [r3, #0]
 8000e00:	bf0c      	ite	eq
 8000e02:	f042 0204 	orreq.w	r2, r2, #4
 8000e06:	f022 0204 	bicne.w	r2, r2, #4
 8000e0a:	601a      	str	r2, [r3, #0]
 8000e0c:	e9d4 2102 	ldrd	r2, r1, [r4, #8]
 8000e10:	430a      	orrs	r2, r1
 8000e12:	6921      	ldr	r1, [r4, #16]
 8000e14:	430a      	orrs	r2, r1
 8000e16:	6961      	ldr	r1, [r4, #20]
 8000e18:	430a      	orrs	r2, r1
 8000e1a:	6861      	ldr	r1, [r4, #4]
 8000e1c:	3901      	subs	r1, #1
 8000e1e:	430a      	orrs	r2, r1
 8000e20:	61da      	str	r2, [r3, #28]
 8000e22:	2000      	movs	r0, #0
 8000e24:	2301      	movs	r3, #1
 8000e26:	6260      	str	r0, [r4, #36]	; 0x24
 8000e28:	f884 3020 	strb.w	r3, [r4, #32]
 8000e2c:	bd38      	pop	{r3, r4, r5, pc}
 8000e2e:	f7ff ff91 	bl	8000d54 <HAL_GetTick>
 8000e32:	1b40      	subs	r0, r0, r5
 8000e34:	280a      	cmp	r0, #10
 8000e36:	d9a4      	bls.n	8000d82 <HAL_CAN_Init+0x22>
 8000e38:	6a63      	ldr	r3, [r4, #36]	; 0x24
 8000e3a:	f443 3300 	orr.w	r3, r3, #131072	; 0x20000
 8000e3e:	6263      	str	r3, [r4, #36]	; 0x24
 8000e40:	2305      	movs	r3, #5
 8000e42:	f884 3020 	strb.w	r3, [r4, #32]
 8000e46:	2001      	movs	r0, #1
 8000e48:	e7f0      	b.n	8000e2c <HAL_CAN_Init+0xcc>
 8000e4a:	f7ff ff83 	bl	8000d54 <HAL_GetTick>
 8000e4e:	1b40      	subs	r0, r0, r5
 8000e50:	280a      	cmp	r0, #10
 8000e52:	d9a1      	bls.n	8000d98 <HAL_CAN_Init+0x38>
 8000e54:	e7f0      	b.n	8000e38 <HAL_CAN_Init+0xd8>
	...

08000e58 <HAL_NVIC_SetPriorityGrouping>:
 8000e58:	4a07      	ldr	r2, [pc, #28]	; (8000e78 <HAL_NVIC_SetPriorityGrouping+0x20>)
 8000e5a:	68d3      	ldr	r3, [r2, #12]
 8000e5c:	f423 63e0 	bic.w	r3, r3, #1792	; 0x700
 8000e60:	041b      	lsls	r3, r3, #16
 8000e62:	0c1b      	lsrs	r3, r3, #16
 8000e64:	f043 63bf 	orr.w	r3, r3, #100139008	; 0x5f80000
 8000e68:	0200      	lsls	r0, r0, #8
 8000e6a:	f443 3300 	orr.w	r3, r3, #131072	; 0x20000
 8000e6e:	f400 60e0 	and.w	r0, r0, #1792	; 0x700
 8000e72:	4303      	orrs	r3, r0
 8000e74:	60d3      	str	r3, [r2, #12]
 8000e76:	4770      	bx	lr
 8000e78:	e000ed00 	.word	0xe000ed00

08000e7c <HAL_NVIC_SetPriority>:
 8000e7c:	4b17      	ldr	r3, [pc, #92]	; (8000edc <HAL_NVIC_SetPriority+0x60>)
 8000e7e:	b570      	push	{r4, r5, r6, lr}
 8000e80:	68dc      	ldr	r4, [r3, #12]
 8000e82:	f3c4 2402 	ubfx	r4, r4, #8, #3
 8000e86:	f1c4 0507 	rsb	r5, r4, #7
 8000e8a:	2d04      	cmp	r5, #4
 8000e8c:	f104 0304 	add.w	r3, r4, #4
 8000e90:	bf28      	it	cs
 8000e92:	2504      	movcs	r5, #4
 8000e94:	f04f 36ff 	mov.w	r6, #4294967295
 8000e98:	2b06      	cmp	r3, #6
 8000e9a:	fa06 f305 	lsl.w	r3, r6, r5
 8000e9e:	bf8c      	ite	hi
 8000ea0:	3c03      	subhi	r4, #3
 8000ea2:	2400      	movls	r4, #0
 8000ea4:	ea21 0303 	bic.w	r3, r1, r3
 8000ea8:	40a3      	lsls	r3, r4
 8000eaa:	fa06 f404 	lsl.w	r4, r6, r4
 8000eae:	ea22 0404 	bic.w	r4, r2, r4
 8000eb2:	2800      	cmp	r0, #0
 8000eb4:	ea43 0304 	orr.w	r3, r3, r4
 8000eb8:	bfa8      	it	ge
 8000eba:	f100 4060 	addge.w	r0, r0, #3758096384	; 0xe0000000
 8000ebe:	ea4f 1303 	mov.w	r3, r3, lsl #4
 8000ec2:	bfbc      	itt	lt
 8000ec4:	f000 000f 	andlt.w	r0, r0, #15
 8000ec8:	4a05      	ldrlt	r2, [pc, #20]	; (8000ee0 <HAL_NVIC_SetPriority+0x64>)
 8000eca:	b2db      	uxtb	r3, r3
 8000ecc:	bfaa      	itet	ge
 8000ece:	f500 4061 	addge.w	r0, r0, #57600	; 0xe100
 8000ed2:	5413      	strblt	r3, [r2, r0]
 8000ed4:	f880 3300 	strbge.w	r3, [r0, #768]	; 0x300
 8000ed8:	bd70      	pop	{r4, r5, r6, pc}
 8000eda:	bf00      	nop
 8000edc:	e000ed00 	.word	0xe000ed00
 8000ee0:	e000ed14 	.word	0xe000ed14

08000ee4 <HAL_NVIC_EnableIRQ>:
 8000ee4:	2800      	cmp	r0, #0
 8000ee6:	db08      	blt.n	8000efa <HAL_NVIC_EnableIRQ+0x16>
 8000ee8:	0942      	lsrs	r2, r0, #5
 8000eea:	2301      	movs	r3, #1
 8000eec:	f000 001f 	and.w	r0, r0, #31
 8000ef0:	fa03 f000 	lsl.w	r0, r3, r0
 8000ef4:	4b01      	ldr	r3, [pc, #4]	; (8000efc <HAL_NVIC_EnableIRQ+0x18>)
 8000ef6:	f843 0022 	str.w	r0, [r3, r2, lsl #2]
 8000efa:	4770      	bx	lr
 8000efc:	e000e100 	.word	0xe000e100

08000f00 <DMA_CalcBaseAndBitshift>:
 8000f00:	6803      	ldr	r3, [r0, #0]
 8000f02:	b2da      	uxtb	r2, r3
 8000f04:	f423 737f 	bic.w	r3, r3, #1020	; 0x3fc
 8000f08:	f023 0303 	bic.w	r3, r3, #3
 8000f0c:	2118      	movs	r1, #24
 8000f0e:	3a10      	subs	r2, #16
 8000f10:	fbb2 f2f1 	udiv	r2, r2, r1
 8000f14:	4904      	ldr	r1, [pc, #16]	; (8000f28 <DMA_CalcBaseAndBitshift+0x28>)
 8000f16:	2a03      	cmp	r2, #3
 8000f18:	bf88      	it	hi
 8000f1a:	3304      	addhi	r3, #4
 8000f1c:	5c89      	ldrb	r1, [r1, r2]
 8000f1e:	6583      	str	r3, [r0, #88]	; 0x58
 8000f20:	65c1      	str	r1, [r0, #92]	; 0x5c
 8000f22:	6d80      	ldr	r0, [r0, #88]	; 0x58
 8000f24:	4770      	bx	lr
 8000f26:	bf00      	nop
 8000f28:	080053ac 	.word	0x080053ac

08000f2c <HAL_DMA_Init>:
 8000f2c:	b570      	push	{r4, r5, r6, lr}
 8000f2e:	4604      	mov	r4, r0
 8000f30:	f7ff ff10 	bl	8000d54 <HAL_GetTick>
 8000f34:	4605      	mov	r5, r0
 8000f36:	2c00      	cmp	r4, #0
 8000f38:	d071      	beq.n	800101e <HAL_DMA_Init+0xf2>
 8000f3a:	2300      	movs	r3, #0
 8000f3c:	f884 3034 	strb.w	r3, [r4, #52]	; 0x34
 8000f40:	6822      	ldr	r2, [r4, #0]
 8000f42:	2302      	movs	r3, #2
 8000f44:	f884 3035 	strb.w	r3, [r4, #53]	; 0x35
 8000f48:	6813      	ldr	r3, [r2, #0]
 8000f4a:	f023 0301 	bic.w	r3, r3, #1
 8000f4e:	6013      	str	r3, [r2, #0]
 8000f50:	6821      	ldr	r1, [r4, #0]
 8000f52:	680b      	ldr	r3, [r1, #0]
 8000f54:	07d8      	lsls	r0, r3, #31
 8000f56:	d43c      	bmi.n	8000fd2 <HAL_DMA_Init+0xa6>
 8000f58:	680b      	ldr	r3, [r1, #0]
 8000f5a:	4d32      	ldr	r5, [pc, #200]	; (8001024 <HAL_DMA_Init+0xf8>)
 8000f5c:	69a0      	ldr	r0, [r4, #24]
 8000f5e:	401d      	ands	r5, r3
 8000f60:	e9d4 2301 	ldrd	r2, r3, [r4, #4]
 8000f64:	4313      	orrs	r3, r2
 8000f66:	68e2      	ldr	r2, [r4, #12]
 8000f68:	4313      	orrs	r3, r2
 8000f6a:	6922      	ldr	r2, [r4, #16]
 8000f6c:	4313      	orrs	r3, r2
 8000f6e:	6962      	ldr	r2, [r4, #20]
 8000f70:	4313      	orrs	r3, r2
 8000f72:	69e2      	ldr	r2, [r4, #28]
 8000f74:	4303      	orrs	r3, r0
 8000f76:	4313      	orrs	r3, r2
 8000f78:	6a22      	ldr	r2, [r4, #32]
 8000f7a:	4313      	orrs	r3, r2
 8000f7c:	6a62      	ldr	r2, [r4, #36]	; 0x24
 8000f7e:	2a04      	cmp	r2, #4
 8000f80:	ea43 0305 	orr.w	r3, r3, r5
 8000f84:	bf02      	ittt	eq
 8000f86:	e9d4 560b 	ldrdeq	r5, r6, [r4, #44]	; 0x2c
 8000f8a:	4335      	orreq	r5, r6
 8000f8c:	432b      	orreq	r3, r5
 8000f8e:	600b      	str	r3, [r1, #0]
 8000f90:	694b      	ldr	r3, [r1, #20]
 8000f92:	2a04      	cmp	r2, #4
 8000f94:	f023 0307 	bic.w	r3, r3, #7
 8000f98:	ea43 0302 	orr.w	r3, r3, r2
 8000f9c:	d10b      	bne.n	8000fb6 <HAL_DMA_Init+0x8a>
 8000f9e:	6aa2      	ldr	r2, [r4, #40]	; 0x28
 8000fa0:	6ae5      	ldr	r5, [r4, #44]	; 0x2c
 8000fa2:	4313      	orrs	r3, r2
 8000fa4:	b13d      	cbz	r5, 8000fb6 <HAL_DMA_Init+0x8a>
 8000fa6:	b9f8      	cbnz	r0, 8000fe8 <HAL_DMA_Init+0xbc>
 8000fa8:	2a01      	cmp	r2, #1
 8000faa:	d02d      	beq.n	8001008 <HAL_DMA_Init+0xdc>
 8000fac:	d301      	bcc.n	8000fb2 <HAL_DMA_Init+0x86>
 8000fae:	2a02      	cmp	r2, #2
 8000fb0:	d101      	bne.n	8000fb6 <HAL_DMA_Init+0x8a>
 8000fb2:	01ea      	lsls	r2, r5, #7
 8000fb4:	d42b      	bmi.n	800100e <HAL_DMA_Init+0xe2>
 8000fb6:	614b      	str	r3, [r1, #20]
 8000fb8:	4620      	mov	r0, r4
 8000fba:	f7ff ffa1 	bl	8000f00 <DMA_CalcBaseAndBitshift>
 8000fbe:	6de2      	ldr	r2, [r4, #92]	; 0x5c
 8000fc0:	233f      	movs	r3, #63	; 0x3f
 8000fc2:	4093      	lsls	r3, r2
 8000fc4:	6083      	str	r3, [r0, #8]
 8000fc6:	2000      	movs	r0, #0
 8000fc8:	2301      	movs	r3, #1
 8000fca:	6560      	str	r0, [r4, #84]	; 0x54
 8000fcc:	f884 3035 	strb.w	r3, [r4, #53]	; 0x35
 8000fd0:	e009      	b.n	8000fe6 <HAL_DMA_Init+0xba>
 8000fd2:	f7ff febf 	bl	8000d54 <HAL_GetTick>
 8000fd6:	1b40      	subs	r0, r0, r5
 8000fd8:	2805      	cmp	r0, #5
 8000fda:	d9b9      	bls.n	8000f50 <HAL_DMA_Init+0x24>
 8000fdc:	2320      	movs	r3, #32
 8000fde:	6563      	str	r3, [r4, #84]	; 0x54
 8000fe0:	2003      	movs	r0, #3
 8000fe2:	f884 0035 	strb.w	r0, [r4, #53]	; 0x35
 8000fe6:	bd70      	pop	{r4, r5, r6, pc}
 8000fe8:	f5b0 5f00 	cmp.w	r0, #8192	; 0x2000
 8000fec:	d113      	bne.n	8001016 <HAL_DMA_Init+0xea>
 8000fee:	2a03      	cmp	r2, #3
 8000ff0:	d8e1      	bhi.n	8000fb6 <HAL_DMA_Init+0x8a>
 8000ff2:	a001      	add	r0, pc, #4	; (adr r0, 8000ff8 <HAL_DMA_Init+0xcc>)
 8000ff4:	f850 f022 	ldr.w	pc, [r0, r2, lsl #2]
 8000ff8:	0800100f 	.word	0x0800100f
 8000ffc:	08000fb3 	.word	0x08000fb3
 8001000:	0800100f 	.word	0x0800100f
 8001004:	08001009 	.word	0x08001009
 8001008:	f1b5 7fc0 	cmp.w	r5, #25165824	; 0x1800000
 800100c:	d1d3      	bne.n	8000fb6 <HAL_DMA_Init+0x8a>
 800100e:	2340      	movs	r3, #64	; 0x40
 8001010:	6563      	str	r3, [r4, #84]	; 0x54
 8001012:	2001      	movs	r0, #1
 8001014:	e7e5      	b.n	8000fe2 <HAL_DMA_Init+0xb6>
 8001016:	2a02      	cmp	r2, #2
 8001018:	d9f9      	bls.n	800100e <HAL_DMA_Init+0xe2>
 800101a:	2a03      	cmp	r2, #3
 800101c:	e7c8      	b.n	8000fb0 <HAL_DMA_Init+0x84>
 800101e:	2001      	movs	r0, #1
 8001020:	e7e1      	b.n	8000fe6 <HAL_DMA_Init+0xba>
 8001022:	bf00      	nop
 8001024:	f010803f 	.word	0xf010803f

08001028 <HAL_DMA_Start_IT>:
 8001028:	b570      	push	{r4, r5, r6, lr}
 800102a:	f890 4034 	ldrb.w	r4, [r0, #52]	; 0x34
 800102e:	2c01      	cmp	r4, #1
 8001030:	d032      	beq.n	8001098 <HAL_DMA_Start_IT+0x70>
 8001032:	2401      	movs	r4, #1
 8001034:	f880 4034 	strb.w	r4, [r0, #52]	; 0x34
 8001038:	f890 4035 	ldrb.w	r4, [r0, #53]	; 0x35
 800103c:	6d86      	ldr	r6, [r0, #88]	; 0x58
 800103e:	2c01      	cmp	r4, #1
 8001040:	f04f 0500 	mov.w	r5, #0
 8001044:	f04f 0402 	mov.w	r4, #2
 8001048:	d124      	bne.n	8001094 <HAL_DMA_Start_IT+0x6c>
 800104a:	f880 4035 	strb.w	r4, [r0, #53]	; 0x35
 800104e:	6804      	ldr	r4, [r0, #0]
 8001050:	6545      	str	r5, [r0, #84]	; 0x54
 8001052:	6825      	ldr	r5, [r4, #0]
 8001054:	f425 2580 	bic.w	r5, r5, #262144	; 0x40000
 8001058:	6025      	str	r5, [r4, #0]
 800105a:	6063      	str	r3, [r4, #4]
 800105c:	6883      	ldr	r3, [r0, #8]
 800105e:	2b40      	cmp	r3, #64	; 0x40
 8001060:	bf0e      	itee	eq
 8001062:	60a2      	streq	r2, [r4, #8]
 8001064:	60a1      	strne	r1, [r4, #8]
 8001066:	60e2      	strne	r2, [r4, #12]
 8001068:	6dc2      	ldr	r2, [r0, #92]	; 0x5c
 800106a:	bf08      	it	eq
 800106c:	60e1      	streq	r1, [r4, #12]
 800106e:	233f      	movs	r3, #63	; 0x3f
 8001070:	4093      	lsls	r3, r2
 8001072:	60b3      	str	r3, [r6, #8]
 8001074:	6823      	ldr	r3, [r4, #0]
 8001076:	f043 0316 	orr.w	r3, r3, #22
 800107a:	6023      	str	r3, [r4, #0]
 800107c:	6c03      	ldr	r3, [r0, #64]	; 0x40
 800107e:	b11b      	cbz	r3, 8001088 <HAL_DMA_Start_IT+0x60>
 8001080:	6823      	ldr	r3, [r4, #0]
 8001082:	f043 0308 	orr.w	r3, r3, #8
 8001086:	6023      	str	r3, [r4, #0]
 8001088:	6823      	ldr	r3, [r4, #0]
 800108a:	f043 0301 	orr.w	r3, r3, #1
 800108e:	6023      	str	r3, [r4, #0]
 8001090:	2000      	movs	r0, #0
 8001092:	bd70      	pop	{r4, r5, r6, pc}
 8001094:	f880 5034 	strb.w	r5, [r0, #52]	; 0x34
 8001098:	2002      	movs	r0, #2
 800109a:	e7fa      	b.n	8001092 <HAL_DMA_Start_IT+0x6a>

0800109c <HAL_DMA_IRQHandler>:
 800109c:	b5f7      	push	{r0, r1, r2, r4, r5, r6, r7, lr}
 800109e:	2300      	movs	r3, #0
 80010a0:	9301      	str	r3, [sp, #4]
 80010a2:	4b5c      	ldr	r3, [pc, #368]	; (8001214 <HAL_DMA_IRQHandler+0x178>)
 80010a4:	6d85      	ldr	r5, [r0, #88]	; 0x58
 80010a6:	681f      	ldr	r7, [r3, #0]
 80010a8:	6dc3      	ldr	r3, [r0, #92]	; 0x5c
 80010aa:	682e      	ldr	r6, [r5, #0]
 80010ac:	2208      	movs	r2, #8
 80010ae:	409a      	lsls	r2, r3
 80010b0:	4232      	tst	r2, r6
 80010b2:	4604      	mov	r4, r0
 80010b4:	d00c      	beq.n	80010d0 <HAL_DMA_IRQHandler+0x34>
 80010b6:	6801      	ldr	r1, [r0, #0]
 80010b8:	6808      	ldr	r0, [r1, #0]
 80010ba:	0740      	lsls	r0, r0, #29
 80010bc:	d508      	bpl.n	80010d0 <HAL_DMA_IRQHandler+0x34>
 80010be:	6808      	ldr	r0, [r1, #0]
 80010c0:	f020 0004 	bic.w	r0, r0, #4
 80010c4:	6008      	str	r0, [r1, #0]
 80010c6:	60aa      	str	r2, [r5, #8]
 80010c8:	6d62      	ldr	r2, [r4, #84]	; 0x54
 80010ca:	f042 0201 	orr.w	r2, r2, #1
 80010ce:	6562      	str	r2, [r4, #84]	; 0x54
 80010d0:	2201      	movs	r2, #1
 80010d2:	409a      	lsls	r2, r3
 80010d4:	4232      	tst	r2, r6
 80010d6:	d008      	beq.n	80010ea <HAL_DMA_IRQHandler+0x4e>
 80010d8:	6821      	ldr	r1, [r4, #0]
 80010da:	6949      	ldr	r1, [r1, #20]
 80010dc:	0609      	lsls	r1, r1, #24
 80010de:	bf41      	itttt	mi
 80010e0:	60aa      	strmi	r2, [r5, #8]
 80010e2:	6d62      	ldrmi	r2, [r4, #84]	; 0x54
 80010e4:	f042 0202 	orrmi.w	r2, r2, #2
 80010e8:	6562      	strmi	r2, [r4, #84]	; 0x54
 80010ea:	2204      	movs	r2, #4
 80010ec:	409a      	lsls	r2, r3
 80010ee:	4232      	tst	r2, r6
 80010f0:	d008      	beq.n	8001104 <HAL_DMA_IRQHandler+0x68>
 80010f2:	6821      	ldr	r1, [r4, #0]
 80010f4:	6809      	ldr	r1, [r1, #0]
 80010f6:	0788      	lsls	r0, r1, #30
 80010f8:	bf41      	itttt	mi
 80010fa:	60aa      	strmi	r2, [r5, #8]
 80010fc:	6d62      	ldrmi	r2, [r4, #84]	; 0x54
 80010fe:	f042 0204 	orrmi.w	r2, r2, #4
 8001102:	6562      	strmi	r2, [r4, #84]	; 0x54
 8001104:	2210      	movs	r2, #16
 8001106:	409a      	lsls	r2, r3
 8001108:	4232      	tst	r2, r6
 800110a:	d010      	beq.n	800112e <HAL_DMA_IRQHandler+0x92>
 800110c:	6823      	ldr	r3, [r4, #0]
 800110e:	6819      	ldr	r1, [r3, #0]
 8001110:	0709      	lsls	r1, r1, #28
 8001112:	d50c      	bpl.n	800112e <HAL_DMA_IRQHandler+0x92>
 8001114:	60aa      	str	r2, [r5, #8]
 8001116:	681a      	ldr	r2, [r3, #0]
 8001118:	0350      	lsls	r0, r2, #13
 800111a:	d537      	bpl.n	800118c <HAL_DMA_IRQHandler+0xf0>
 800111c:	681b      	ldr	r3, [r3, #0]
 800111e:	0319      	lsls	r1, r3, #12
 8001120:	d401      	bmi.n	8001126 <HAL_DMA_IRQHandler+0x8a>
 8001122:	6c23      	ldr	r3, [r4, #64]	; 0x40
 8001124:	e000      	b.n	8001128 <HAL_DMA_IRQHandler+0x8c>
 8001126:	6ca3      	ldr	r3, [r4, #72]	; 0x48
 8001128:	b10b      	cbz	r3, 800112e <HAL_DMA_IRQHandler+0x92>
 800112a:	4620      	mov	r0, r4
 800112c:	4798      	blx	r3
 800112e:	6de1      	ldr	r1, [r4, #92]	; 0x5c
 8001130:	2220      	movs	r2, #32
 8001132:	408a      	lsls	r2, r1
 8001134:	4232      	tst	r2, r6
 8001136:	d03a      	beq.n	80011ae <HAL_DMA_IRQHandler+0x112>
 8001138:	6823      	ldr	r3, [r4, #0]
 800113a:	6818      	ldr	r0, [r3, #0]
 800113c:	06c6      	lsls	r6, r0, #27
 800113e:	d536      	bpl.n	80011ae <HAL_DMA_IRQHandler+0x112>
 8001140:	60aa      	str	r2, [r5, #8]
 8001142:	f894 2035 	ldrb.w	r2, [r4, #53]	; 0x35
 8001146:	2a05      	cmp	r2, #5
 8001148:	681a      	ldr	r2, [r3, #0]
 800114a:	d127      	bne.n	800119c <HAL_DMA_IRQHandler+0x100>
 800114c:	f022 0216 	bic.w	r2, r2, #22
 8001150:	601a      	str	r2, [r3, #0]
 8001152:	695a      	ldr	r2, [r3, #20]
 8001154:	f022 0280 	bic.w	r2, r2, #128	; 0x80
 8001158:	615a      	str	r2, [r3, #20]
 800115a:	6c22      	ldr	r2, [r4, #64]	; 0x40
 800115c:	b90a      	cbnz	r2, 8001162 <HAL_DMA_IRQHandler+0xc6>
 800115e:	6ca2      	ldr	r2, [r4, #72]	; 0x48
 8001160:	b11a      	cbz	r2, 800116a <HAL_DMA_IRQHandler+0xce>
 8001162:	681a      	ldr	r2, [r3, #0]
 8001164:	f022 0208 	bic.w	r2, r2, #8
 8001168:	601a      	str	r2, [r3, #0]
 800116a:	233f      	movs	r3, #63	; 0x3f
 800116c:	408b      	lsls	r3, r1
 800116e:	60ab      	str	r3, [r5, #8]
 8001170:	2300      	movs	r3, #0
 8001172:	f884 3034 	strb.w	r3, [r4, #52]	; 0x34
 8001176:	2301      	movs	r3, #1
 8001178:	f884 3035 	strb.w	r3, [r4, #53]	; 0x35
 800117c:	6d23      	ldr	r3, [r4, #80]	; 0x50
 800117e:	2b00      	cmp	r3, #0
 8001180:	d045      	beq.n	800120e <HAL_DMA_IRQHandler+0x172>
 8001182:	4620      	mov	r0, r4
 8001184:	b003      	add	sp, #12
 8001186:	e8bd 40f0 	ldmia.w	sp!, {r4, r5, r6, r7, lr}
 800118a:	4718      	bx	r3
 800118c:	681a      	ldr	r2, [r3, #0]
 800118e:	05d2      	lsls	r2, r2, #23
 8001190:	bf5e      	ittt	pl
 8001192:	681a      	ldrpl	r2, [r3, #0]
 8001194:	f022 0208 	bicpl.w	r2, r2, #8
 8001198:	601a      	strpl	r2, [r3, #0]
 800119a:	e7c2      	b.n	8001122 <HAL_DMA_IRQHandler+0x86>
 800119c:	0350      	lsls	r0, r2, #13
 800119e:	d527      	bpl.n	80011f0 <HAL_DMA_IRQHandler+0x154>
 80011a0:	681b      	ldr	r3, [r3, #0]
 80011a2:	0319      	lsls	r1, r3, #12
 80011a4:	d431      	bmi.n	800120a <HAL_DMA_IRQHandler+0x16e>
 80011a6:	6c63      	ldr	r3, [r4, #68]	; 0x44
 80011a8:	b10b      	cbz	r3, 80011ae <HAL_DMA_IRQHandler+0x112>
 80011aa:	4620      	mov	r0, r4
 80011ac:	4798      	blx	r3
 80011ae:	6d63      	ldr	r3, [r4, #84]	; 0x54
 80011b0:	b36b      	cbz	r3, 800120e <HAL_DMA_IRQHandler+0x172>
 80011b2:	6d63      	ldr	r3, [r4, #84]	; 0x54
 80011b4:	07da      	lsls	r2, r3, #31
 80011b6:	d519      	bpl.n	80011ec <HAL_DMA_IRQHandler+0x150>
 80011b8:	2305      	movs	r3, #5
 80011ba:	6822      	ldr	r2, [r4, #0]
 80011bc:	f884 3035 	strb.w	r3, [r4, #53]	; 0x35
 80011c0:	6813      	ldr	r3, [r2, #0]
 80011c2:	f023 0301 	bic.w	r3, r3, #1
 80011c6:	6013      	str	r3, [r2, #0]
 80011c8:	f44f 5316 	mov.w	r3, #9600	; 0x2580
 80011cc:	fbb7 f7f3 	udiv	r7, r7, r3
 80011d0:	9b01      	ldr	r3, [sp, #4]
 80011d2:	3301      	adds	r3, #1
 80011d4:	42bb      	cmp	r3, r7
 80011d6:	9301      	str	r3, [sp, #4]
 80011d8:	d802      	bhi.n	80011e0 <HAL_DMA_IRQHandler+0x144>
 80011da:	6813      	ldr	r3, [r2, #0]
 80011dc:	07db      	lsls	r3, r3, #31
 80011de:	d4f7      	bmi.n	80011d0 <HAL_DMA_IRQHandler+0x134>
 80011e0:	2300      	movs	r3, #0
 80011e2:	f884 3034 	strb.w	r3, [r4, #52]	; 0x34
 80011e6:	2301      	movs	r3, #1
 80011e8:	f884 3035 	strb.w	r3, [r4, #53]	; 0x35
 80011ec:	6ce3      	ldr	r3, [r4, #76]	; 0x4c
 80011ee:	e7c6      	b.n	800117e <HAL_DMA_IRQHandler+0xe2>
 80011f0:	681a      	ldr	r2, [r3, #0]
 80011f2:	f412 7280 	ands.w	r2, r2, #256	; 0x100
 80011f6:	d108      	bne.n	800120a <HAL_DMA_IRQHandler+0x16e>
 80011f8:	6819      	ldr	r1, [r3, #0]
 80011fa:	f021 0110 	bic.w	r1, r1, #16
 80011fe:	6019      	str	r1, [r3, #0]
 8001200:	2301      	movs	r3, #1
 8001202:	f884 2034 	strb.w	r2, [r4, #52]	; 0x34
 8001206:	f884 3035 	strb.w	r3, [r4, #53]	; 0x35
 800120a:	6be3      	ldr	r3, [r4, #60]	; 0x3c
 800120c:	e7cc      	b.n	80011a8 <HAL_DMA_IRQHandler+0x10c>
 800120e:	b003      	add	sp, #12
 8001210:	bdf0      	pop	{r4, r5, r6, r7, pc}
 8001212:	bf00      	nop
 8001214:	20000000 	.word	0x20000000

08001218 <HAL_GPIO_Init>:
 8001218:	e92d 4ff0 	stmdb	sp!, {r4, r5, r6, r7, r8, r9, sl, fp, lr}
 800121c:	b085      	sub	sp, #20
 800121e:	680b      	ldr	r3, [r1, #0]
 8001220:	f8df 81ac 	ldr.w	r8, [pc, #428]	; 80013d0 <HAL_GPIO_Init+0x1b8>
 8001224:	4a68      	ldr	r2, [pc, #416]	; (80013c8 <HAL_GPIO_Init+0x1b0>)
 8001226:	f8df 91ac 	ldr.w	r9, [pc, #428]	; 80013d4 <HAL_GPIO_Init+0x1bc>
 800122a:	9301      	str	r3, [sp, #4]
 800122c:	2300      	movs	r3, #0
 800122e:	2401      	movs	r4, #1
 8001230:	9d01      	ldr	r5, [sp, #4]
 8001232:	409c      	lsls	r4, r3
 8001234:	4025      	ands	r5, r4
 8001236:	42ac      	cmp	r4, r5
 8001238:	f040 80b0 	bne.w	800139c <HAL_GPIO_Init+0x184>
 800123c:	684c      	ldr	r4, [r1, #4]
 800123e:	f024 0c10 	bic.w	ip, r4, #16
 8001242:	ea4f 0e43 	mov.w	lr, r3, lsl #1
 8001246:	2603      	movs	r6, #3
 8001248:	f10c 37ff 	add.w	r7, ip, #4294967295
 800124c:	fa06 f60e 	lsl.w	r6, r6, lr
 8001250:	2f01      	cmp	r7, #1
 8001252:	ea6f 0606 	mvn.w	r6, r6
 8001256:	d811      	bhi.n	800127c <HAL_GPIO_Init+0x64>
 8001258:	6887      	ldr	r7, [r0, #8]
 800125a:	ea07 0a06 	and.w	sl, r7, r6
 800125e:	68cf      	ldr	r7, [r1, #12]
 8001260:	fa07 f70e 	lsl.w	r7, r7, lr
 8001264:	ea47 070a 	orr.w	r7, r7, sl
 8001268:	6087      	str	r7, [r0, #8]
 800126a:	6847      	ldr	r7, [r0, #4]
 800126c:	ea27 0a05 	bic.w	sl, r7, r5
 8001270:	f3c4 1700 	ubfx	r7, r4, #4, #1
 8001274:	409f      	lsls	r7, r3
 8001276:	ea47 070a 	orr.w	r7, r7, sl
 800127a:	6047      	str	r7, [r0, #4]
 800127c:	68c7      	ldr	r7, [r0, #12]
 800127e:	ea07 0a06 	and.w	sl, r7, r6
 8001282:	688f      	ldr	r7, [r1, #8]
 8001284:	fa07 f70e 	lsl.w	r7, r7, lr
 8001288:	ea47 070a 	orr.w	r7, r7, sl
 800128c:	f1bc 0f02 	cmp.w	ip, #2
 8001290:	60c7      	str	r7, [r0, #12]
 8001292:	d116      	bne.n	80012c2 <HAL_GPIO_Init+0xaa>
 8001294:	ea4f 0ad3 	mov.w	sl, r3, lsr #3
 8001298:	eb00 0a8a 	add.w	sl, r0, sl, lsl #2
 800129c:	f003 0b07 	and.w	fp, r3, #7
 80012a0:	f8da 7020 	ldr.w	r7, [sl, #32]
 80012a4:	ea4f 0b8b 	mov.w	fp, fp, lsl #2
 80012a8:	f04f 0c0f 	mov.w	ip, #15
 80012ac:	fa0c fc0b 	lsl.w	ip, ip, fp
 80012b0:	ea27 0c0c 	bic.w	ip, r7, ip
 80012b4:	690f      	ldr	r7, [r1, #16]
 80012b6:	fa07 f70b 	lsl.w	r7, r7, fp
 80012ba:	ea47 070c 	orr.w	r7, r7, ip
 80012be:	f8ca 7020 	str.w	r7, [sl, #32]
 80012c2:	6807      	ldr	r7, [r0, #0]
 80012c4:	403e      	ands	r6, r7
 80012c6:	f004 0703 	and.w	r7, r4, #3
 80012ca:	fa07 fe0e 	lsl.w	lr, r7, lr
 80012ce:	ea4e 0606 	orr.w	r6, lr, r6
 80012d2:	6006      	str	r6, [r0, #0]
 80012d4:	00e6      	lsls	r6, r4, #3
 80012d6:	d561      	bpl.n	800139c <HAL_GPIO_Init+0x184>
 80012d8:	f04f 0b00 	mov.w	fp, #0
 80012dc:	f8cd b00c 	str.w	fp, [sp, #12]
 80012e0:	f8d8 7044 	ldr.w	r7, [r8, #68]	; 0x44
 80012e4:	4e39      	ldr	r6, [pc, #228]	; (80013cc <HAL_GPIO_Init+0x1b4>)
 80012e6:	f447 4780 	orr.w	r7, r7, #16384	; 0x4000
 80012ea:	f8c8 7044 	str.w	r7, [r8, #68]	; 0x44
 80012ee:	f8d8 7044 	ldr.w	r7, [r8, #68]	; 0x44
 80012f2:	f407 4780 	and.w	r7, r7, #16384	; 0x4000
 80012f6:	9703      	str	r7, [sp, #12]
 80012f8:	9f03      	ldr	r7, [sp, #12]
 80012fa:	f023 0703 	bic.w	r7, r3, #3
 80012fe:	f107 4780 	add.w	r7, r7, #1073741824	; 0x40000000
 8001302:	f507 379c 	add.w	r7, r7, #79872	; 0x13800
 8001306:	f003 0e03 	and.w	lr, r3, #3
 800130a:	f8d7 a008 	ldr.w	sl, [r7, #8]
 800130e:	ea4f 0e8e 	mov.w	lr, lr, lsl #2
 8001312:	f04f 0c0f 	mov.w	ip, #15
 8001316:	fa0c fc0e 	lsl.w	ip, ip, lr
 800131a:	42b0      	cmp	r0, r6
 800131c:	ea2a 0c0c 	bic.w	ip, sl, ip
 8001320:	d043      	beq.n	80013aa <HAL_GPIO_Init+0x192>
 8001322:	f506 6680 	add.w	r6, r6, #1024	; 0x400
 8001326:	42b0      	cmp	r0, r6
 8001328:	d041      	beq.n	80013ae <HAL_GPIO_Init+0x196>
 800132a:	f506 6680 	add.w	r6, r6, #1024	; 0x400
 800132e:	42b0      	cmp	r0, r6
 8001330:	d03f      	beq.n	80013b2 <HAL_GPIO_Init+0x19a>
 8001332:	f506 6680 	add.w	r6, r6, #1024	; 0x400
 8001336:	42b0      	cmp	r0, r6
 8001338:	d03d      	beq.n	80013b6 <HAL_GPIO_Init+0x19e>
 800133a:	f506 6680 	add.w	r6, r6, #1024	; 0x400
 800133e:	42b0      	cmp	r0, r6
 8001340:	d03b      	beq.n	80013ba <HAL_GPIO_Init+0x1a2>
 8001342:	4548      	cmp	r0, r9
 8001344:	d03b      	beq.n	80013be <HAL_GPIO_Init+0x1a6>
 8001346:	f506 6600 	add.w	r6, r6, #2048	; 0x800
 800134a:	42b0      	cmp	r0, r6
 800134c:	d039      	beq.n	80013c2 <HAL_GPIO_Init+0x1aa>
 800134e:	f506 6680 	add.w	r6, r6, #1024	; 0x400
 8001352:	42b0      	cmp	r0, r6
 8001354:	bf14      	ite	ne
 8001356:	2608      	movne	r6, #8
 8001358:	2607      	moveq	r6, #7
 800135a:	fa06 f60e 	lsl.w	r6, r6, lr
 800135e:	ea46 060c 	orr.w	r6, r6, ip
 8001362:	60be      	str	r6, [r7, #8]
 8001364:	6816      	ldr	r6, [r2, #0]
 8001366:	43ef      	mvns	r7, r5
 8001368:	f414 3f80 	tst.w	r4, #65536	; 0x10000
 800136c:	bf0c      	ite	eq
 800136e:	403e      	andeq	r6, r7
 8001370:	432e      	orrne	r6, r5
 8001372:	6016      	str	r6, [r2, #0]
 8001374:	6856      	ldr	r6, [r2, #4]
 8001376:	f414 3f00 	tst.w	r4, #131072	; 0x20000
 800137a:	bf0c      	ite	eq
 800137c:	403e      	andeq	r6, r7
 800137e:	432e      	orrne	r6, r5
 8001380:	6056      	str	r6, [r2, #4]
 8001382:	6896      	ldr	r6, [r2, #8]
 8001384:	f414 1f80 	tst.w	r4, #1048576	; 0x100000
 8001388:	bf0c      	ite	eq
 800138a:	403e      	andeq	r6, r7
 800138c:	432e      	orrne	r6, r5
 800138e:	6096      	str	r6, [r2, #8]
 8001390:	68d6      	ldr	r6, [r2, #12]
 8001392:	02a4      	lsls	r4, r4, #10
 8001394:	bf54      	ite	pl
 8001396:	403e      	andpl	r6, r7
 8001398:	432e      	orrmi	r6, r5
 800139a:	60d6      	str	r6, [r2, #12]
 800139c:	3301      	adds	r3, #1
 800139e:	2b10      	cmp	r3, #16
 80013a0:	f47f af45 	bne.w	800122e <HAL_GPIO_Init+0x16>
 80013a4:	b005      	add	sp, #20
 80013a6:	e8bd 8ff0 	ldmia.w	sp!, {r4, r5, r6, r7, r8, r9, sl, fp, pc}
 80013aa:	465e      	mov	r6, fp
 80013ac:	e7d5      	b.n	800135a <HAL_GPIO_Init+0x142>
 80013ae:	2601      	movs	r6, #1
 80013b0:	e7d3      	b.n	800135a <HAL_GPIO_Init+0x142>
 80013b2:	2602      	movs	r6, #2
 80013b4:	e7d1      	b.n	800135a <HAL_GPIO_Init+0x142>
 80013b6:	2603      	movs	r6, #3
 80013b8:	e7cf      	b.n	800135a <HAL_GPIO_Init+0x142>
 80013ba:	2604      	movs	r6, #4
 80013bc:	e7cd      	b.n	800135a <HAL_GPIO_Init+0x142>
 80013be:	2605      	movs	r6, #5
 80013c0:	e7cb      	b.n	800135a <HAL_GPIO_Init+0x142>
 80013c2:	2606      	movs	r6, #6
 80013c4:	e7c9      	b.n	800135a <HAL_GPIO_Init+0x142>
 80013c6:	bf00      	nop
 80013c8:	40013c00 	.word	0x40013c00
 80013cc:	40020000 	.word	0x40020000
 80013d0:	40023800 	.word	0x40023800
 80013d4:	40021400 	.word	0x40021400

080013d8 <HAL_GPIO_WritePin>:
 80013d8:	b10a      	cbz	r2, 80013de <HAL_GPIO_WritePin+0x6>
 80013da:	6181      	str	r1, [r0, #24]
 80013dc:	4770      	bx	lr
 80013de:	0409      	lsls	r1, r1, #16
 80013e0:	e7fb      	b.n	80013da <HAL_GPIO_WritePin+0x2>
	...

080013e4 <HAL_RCC_OscConfig>:
 80013e4:	e92d 41f3 	stmdb	sp!, {r0, r1, r4, r5, r6, r7, r8, lr}
 80013e8:	4604      	mov	r4, r0
 80013ea:	b908      	cbnz	r0, 80013f0 <HAL_RCC_OscConfig+0xc>
 80013ec:	2001      	movs	r0, #1
 80013ee:	e03f      	b.n	8001470 <HAL_RCC_OscConfig+0x8c>
 80013f0:	6803      	ldr	r3, [r0, #0]
 80013f2:	07dd      	lsls	r5, r3, #31
 80013f4:	d410      	bmi.n	8001418 <HAL_RCC_OscConfig+0x34>
 80013f6:	6823      	ldr	r3, [r4, #0]
 80013f8:	0798      	lsls	r0, r3, #30
 80013fa:	d45a      	bmi.n	80014b2 <HAL_RCC_OscConfig+0xce>
 80013fc:	6823      	ldr	r3, [r4, #0]
 80013fe:	071a      	lsls	r2, r3, #28
 8001400:	f100 809c 	bmi.w	800153c <HAL_RCC_OscConfig+0x158>
 8001404:	6823      	ldr	r3, [r4, #0]
 8001406:	075b      	lsls	r3, r3, #29
 8001408:	f100 80ba 	bmi.w	8001580 <HAL_RCC_OscConfig+0x19c>
 800140c:	69a0      	ldr	r0, [r4, #24]
 800140e:	2800      	cmp	r0, #0
 8001410:	f040 811b 	bne.w	800164a <HAL_RCC_OscConfig+0x266>
 8001414:	2000      	movs	r0, #0
 8001416:	e02b      	b.n	8001470 <HAL_RCC_OscConfig+0x8c>
 8001418:	4ba7      	ldr	r3, [pc, #668]	; (80016b8 <HAL_RCC_OscConfig+0x2d4>)
 800141a:	689a      	ldr	r2, [r3, #8]
 800141c:	f002 020c 	and.w	r2, r2, #12
 8001420:	2a04      	cmp	r2, #4
 8001422:	d007      	beq.n	8001434 <HAL_RCC_OscConfig+0x50>
 8001424:	689a      	ldr	r2, [r3, #8]
 8001426:	f002 020c 	and.w	r2, r2, #12
 800142a:	2a08      	cmp	r2, #8
 800142c:	d10a      	bne.n	8001444 <HAL_RCC_OscConfig+0x60>
 800142e:	685b      	ldr	r3, [r3, #4]
 8001430:	0259      	lsls	r1, r3, #9
 8001432:	d507      	bpl.n	8001444 <HAL_RCC_OscConfig+0x60>
 8001434:	4ba0      	ldr	r3, [pc, #640]	; (80016b8 <HAL_RCC_OscConfig+0x2d4>)
 8001436:	681b      	ldr	r3, [r3, #0]
 8001438:	039a      	lsls	r2, r3, #14
 800143a:	d5dc      	bpl.n	80013f6 <HAL_RCC_OscConfig+0x12>
 800143c:	6863      	ldr	r3, [r4, #4]
 800143e:	2b00      	cmp	r3, #0
 8001440:	d1d9      	bne.n	80013f6 <HAL_RCC_OscConfig+0x12>
 8001442:	e7d3      	b.n	80013ec <HAL_RCC_OscConfig+0x8>
 8001444:	6863      	ldr	r3, [r4, #4]
 8001446:	4d9c      	ldr	r5, [pc, #624]	; (80016b8 <HAL_RCC_OscConfig+0x2d4>)
 8001448:	f5b3 3f80 	cmp.w	r3, #65536	; 0x10000
 800144c:	d113      	bne.n	8001476 <HAL_RCC_OscConfig+0x92>
 800144e:	682b      	ldr	r3, [r5, #0]
 8001450:	f443 3380 	orr.w	r3, r3, #65536	; 0x10000
 8001454:	602b      	str	r3, [r5, #0]
 8001456:	f7ff fc7d 	bl	8000d54 <HAL_GetTick>
 800145a:	4d97      	ldr	r5, [pc, #604]	; (80016b8 <HAL_RCC_OscConfig+0x2d4>)
 800145c:	4606      	mov	r6, r0
 800145e:	682b      	ldr	r3, [r5, #0]
 8001460:	039b      	lsls	r3, r3, #14
 8001462:	d4c8      	bmi.n	80013f6 <HAL_RCC_OscConfig+0x12>
 8001464:	f7ff fc76 	bl	8000d54 <HAL_GetTick>
 8001468:	1b80      	subs	r0, r0, r6
 800146a:	2864      	cmp	r0, #100	; 0x64
 800146c:	d9f7      	bls.n	800145e <HAL_RCC_OscConfig+0x7a>
 800146e:	2003      	movs	r0, #3
 8001470:	b002      	add	sp, #8
 8001472:	e8bd 81f0 	ldmia.w	sp!, {r4, r5, r6, r7, r8, pc}
 8001476:	f5b3 2fa0 	cmp.w	r3, #327680	; 0x50000
 800147a:	d104      	bne.n	8001486 <HAL_RCC_OscConfig+0xa2>
 800147c:	682b      	ldr	r3, [r5, #0]
 800147e:	f443 2380 	orr.w	r3, r3, #262144	; 0x40000
 8001482:	602b      	str	r3, [r5, #0]
 8001484:	e7e3      	b.n	800144e <HAL_RCC_OscConfig+0x6a>
 8001486:	682a      	ldr	r2, [r5, #0]
 8001488:	f422 3280 	bic.w	r2, r2, #65536	; 0x10000
 800148c:	602a      	str	r2, [r5, #0]
 800148e:	682a      	ldr	r2, [r5, #0]
 8001490:	f422 2280 	bic.w	r2, r2, #262144	; 0x40000
 8001494:	602a      	str	r2, [r5, #0]
 8001496:	2b00      	cmp	r3, #0
 8001498:	d1dd      	bne.n	8001456 <HAL_RCC_OscConfig+0x72>
 800149a:	f7ff fc5b 	bl	8000d54 <HAL_GetTick>
 800149e:	4606      	mov	r6, r0
 80014a0:	682b      	ldr	r3, [r5, #0]
 80014a2:	039f      	lsls	r7, r3, #14
 80014a4:	d5a7      	bpl.n	80013f6 <HAL_RCC_OscConfig+0x12>
 80014a6:	f7ff fc55 	bl	8000d54 <HAL_GetTick>
 80014aa:	1b80      	subs	r0, r0, r6
 80014ac:	2864      	cmp	r0, #100	; 0x64
 80014ae:	d9f7      	bls.n	80014a0 <HAL_RCC_OscConfig+0xbc>
 80014b0:	e7dd      	b.n	800146e <HAL_RCC_OscConfig+0x8a>
 80014b2:	4b81      	ldr	r3, [pc, #516]	; (80016b8 <HAL_RCC_OscConfig+0x2d4>)
 80014b4:	689a      	ldr	r2, [r3, #8]
 80014b6:	f012 0f0c 	tst.w	r2, #12
 80014ba:	d007      	beq.n	80014cc <HAL_RCC_OscConfig+0xe8>
 80014bc:	689a      	ldr	r2, [r3, #8]
 80014be:	f002 020c 	and.w	r2, r2, #12
 80014c2:	2a08      	cmp	r2, #8
 80014c4:	d111      	bne.n	80014ea <HAL_RCC_OscConfig+0x106>
 80014c6:	685b      	ldr	r3, [r3, #4]
 80014c8:	025e      	lsls	r6, r3, #9
 80014ca:	d40e      	bmi.n	80014ea <HAL_RCC_OscConfig+0x106>
 80014cc:	4b7a      	ldr	r3, [pc, #488]	; (80016b8 <HAL_RCC_OscConfig+0x2d4>)
 80014ce:	681a      	ldr	r2, [r3, #0]
 80014d0:	0795      	lsls	r5, r2, #30
 80014d2:	d502      	bpl.n	80014da <HAL_RCC_OscConfig+0xf6>
 80014d4:	68e2      	ldr	r2, [r4, #12]
 80014d6:	2a01      	cmp	r2, #1
 80014d8:	d188      	bne.n	80013ec <HAL_RCC_OscConfig+0x8>
 80014da:	681a      	ldr	r2, [r3, #0]
 80014dc:	6921      	ldr	r1, [r4, #16]
 80014de:	f022 02f8 	bic.w	r2, r2, #248	; 0xf8
 80014e2:	ea42 02c1 	orr.w	r2, r2, r1, lsl #3
 80014e6:	601a      	str	r2, [r3, #0]
 80014e8:	e788      	b.n	80013fc <HAL_RCC_OscConfig+0x18>
 80014ea:	68e2      	ldr	r2, [r4, #12]
 80014ec:	4b73      	ldr	r3, [pc, #460]	; (80016bc <HAL_RCC_OscConfig+0x2d8>)
 80014ee:	b1b2      	cbz	r2, 800151e <HAL_RCC_OscConfig+0x13a>
 80014f0:	2201      	movs	r2, #1
 80014f2:	601a      	str	r2, [r3, #0]
 80014f4:	f7ff fc2e 	bl	8000d54 <HAL_GetTick>
 80014f8:	4d6f      	ldr	r5, [pc, #444]	; (80016b8 <HAL_RCC_OscConfig+0x2d4>)
 80014fa:	4606      	mov	r6, r0
 80014fc:	682b      	ldr	r3, [r5, #0]
 80014fe:	0798      	lsls	r0, r3, #30
 8001500:	d507      	bpl.n	8001512 <HAL_RCC_OscConfig+0x12e>
 8001502:	682b      	ldr	r3, [r5, #0]
 8001504:	6922      	ldr	r2, [r4, #16]
 8001506:	f023 03f8 	bic.w	r3, r3, #248	; 0xf8
 800150a:	ea43 03c2 	orr.w	r3, r3, r2, lsl #3
 800150e:	602b      	str	r3, [r5, #0]
 8001510:	e774      	b.n	80013fc <HAL_RCC_OscConfig+0x18>
 8001512:	f7ff fc1f 	bl	8000d54 <HAL_GetTick>
 8001516:	1b80      	subs	r0, r0, r6
 8001518:	2802      	cmp	r0, #2
 800151a:	d9ef      	bls.n	80014fc <HAL_RCC_OscConfig+0x118>
 800151c:	e7a7      	b.n	800146e <HAL_RCC_OscConfig+0x8a>
 800151e:	601a      	str	r2, [r3, #0]
 8001520:	f7ff fc18 	bl	8000d54 <HAL_GetTick>
 8001524:	4d64      	ldr	r5, [pc, #400]	; (80016b8 <HAL_RCC_OscConfig+0x2d4>)
 8001526:	4606      	mov	r6, r0
 8001528:	682b      	ldr	r3, [r5, #0]
 800152a:	0799      	lsls	r1, r3, #30
 800152c:	f57f af66 	bpl.w	80013fc <HAL_RCC_OscConfig+0x18>
 8001530:	f7ff fc10 	bl	8000d54 <HAL_GetTick>
 8001534:	1b80      	subs	r0, r0, r6
 8001536:	2802      	cmp	r0, #2
 8001538:	d9f6      	bls.n	8001528 <HAL_RCC_OscConfig+0x144>
 800153a:	e798      	b.n	800146e <HAL_RCC_OscConfig+0x8a>
 800153c:	6962      	ldr	r2, [r4, #20]
 800153e:	4b60      	ldr	r3, [pc, #384]	; (80016c0 <HAL_RCC_OscConfig+0x2dc>)
 8001540:	b17a      	cbz	r2, 8001562 <HAL_RCC_OscConfig+0x17e>
 8001542:	2201      	movs	r2, #1
 8001544:	601a      	str	r2, [r3, #0]
 8001546:	f7ff fc05 	bl	8000d54 <HAL_GetTick>
 800154a:	4d5b      	ldr	r5, [pc, #364]	; (80016b8 <HAL_RCC_OscConfig+0x2d4>)
 800154c:	4606      	mov	r6, r0
 800154e:	6f6b      	ldr	r3, [r5, #116]	; 0x74
 8001550:	079f      	lsls	r7, r3, #30
 8001552:	f53f af57 	bmi.w	8001404 <HAL_RCC_OscConfig+0x20>
 8001556:	f7ff fbfd 	bl	8000d54 <HAL_GetTick>
 800155a:	1b80      	subs	r0, r0, r6
 800155c:	2802      	cmp	r0, #2
 800155e:	d9f6      	bls.n	800154e <HAL_RCC_OscConfig+0x16a>
 8001560:	e785      	b.n	800146e <HAL_RCC_OscConfig+0x8a>
 8001562:	601a      	str	r2, [r3, #0]
 8001564:	f7ff fbf6 	bl	8000d54 <HAL_GetTick>
 8001568:	4d53      	ldr	r5, [pc, #332]	; (80016b8 <HAL_RCC_OscConfig+0x2d4>)
 800156a:	4606      	mov	r6, r0
 800156c:	6f6b      	ldr	r3, [r5, #116]	; 0x74
 800156e:	0798      	lsls	r0, r3, #30
 8001570:	f57f af48 	bpl.w	8001404 <HAL_RCC_OscConfig+0x20>
 8001574:	f7ff fbee 	bl	8000d54 <HAL_GetTick>
 8001578:	1b80      	subs	r0, r0, r6
 800157a:	2802      	cmp	r0, #2
 800157c:	d9f6      	bls.n	800156c <HAL_RCC_OscConfig+0x188>
 800157e:	e776      	b.n	800146e <HAL_RCC_OscConfig+0x8a>
 8001580:	4b4d      	ldr	r3, [pc, #308]	; (80016b8 <HAL_RCC_OscConfig+0x2d4>)
 8001582:	6c1a      	ldr	r2, [r3, #64]	; 0x40
 8001584:	f012 5280 	ands.w	r2, r2, #268435456	; 0x10000000
 8001588:	d128      	bne.n	80015dc <HAL_RCC_OscConfig+0x1f8>
 800158a:	9201      	str	r2, [sp, #4]
 800158c:	6c1a      	ldr	r2, [r3, #64]	; 0x40
 800158e:	f042 5280 	orr.w	r2, r2, #268435456	; 0x10000000
 8001592:	641a      	str	r2, [r3, #64]	; 0x40
 8001594:	6c1b      	ldr	r3, [r3, #64]	; 0x40
 8001596:	f003 5380 	and.w	r3, r3, #268435456	; 0x10000000
 800159a:	9301      	str	r3, [sp, #4]
 800159c:	9b01      	ldr	r3, [sp, #4]
 800159e:	2601      	movs	r6, #1
 80015a0:	4d48      	ldr	r5, [pc, #288]	; (80016c4 <HAL_RCC_OscConfig+0x2e0>)
 80015a2:	682b      	ldr	r3, [r5, #0]
 80015a4:	05d9      	lsls	r1, r3, #23
 80015a6:	d51b      	bpl.n	80015e0 <HAL_RCC_OscConfig+0x1fc>
 80015a8:	68a3      	ldr	r3, [r4, #8]
 80015aa:	4d43      	ldr	r5, [pc, #268]	; (80016b8 <HAL_RCC_OscConfig+0x2d4>)
 80015ac:	2b01      	cmp	r3, #1
 80015ae:	d127      	bne.n	8001600 <HAL_RCC_OscConfig+0x21c>
 80015b0:	6f2b      	ldr	r3, [r5, #112]	; 0x70
 80015b2:	f043 0301 	orr.w	r3, r3, #1
 80015b6:	672b      	str	r3, [r5, #112]	; 0x70
 80015b8:	f7ff fbcc 	bl	8000d54 <HAL_GetTick>
 80015bc:	4d3e      	ldr	r5, [pc, #248]	; (80016b8 <HAL_RCC_OscConfig+0x2d4>)
 80015be:	4607      	mov	r7, r0
 80015c0:	f241 3888 	movw	r8, #5000	; 0x1388
 80015c4:	6f2b      	ldr	r3, [r5, #112]	; 0x70
 80015c6:	079b      	lsls	r3, r3, #30
 80015c8:	d539      	bpl.n	800163e <HAL_RCC_OscConfig+0x25a>
 80015ca:	2e00      	cmp	r6, #0
 80015cc:	f43f af1e 	beq.w	800140c <HAL_RCC_OscConfig+0x28>
 80015d0:	4a39      	ldr	r2, [pc, #228]	; (80016b8 <HAL_RCC_OscConfig+0x2d4>)
 80015d2:	6c13      	ldr	r3, [r2, #64]	; 0x40
 80015d4:	f023 5380 	bic.w	r3, r3, #268435456	; 0x10000000
 80015d8:	6413      	str	r3, [r2, #64]	; 0x40
 80015da:	e717      	b.n	800140c <HAL_RCC_OscConfig+0x28>
 80015dc:	2600      	movs	r6, #0
 80015de:	e7df      	b.n	80015a0 <HAL_RCC_OscConfig+0x1bc>
 80015e0:	682b      	ldr	r3, [r5, #0]
 80015e2:	f443 7380 	orr.w	r3, r3, #256	; 0x100
 80015e6:	602b      	str	r3, [r5, #0]
 80015e8:	f7ff fbb4 	bl	8000d54 <HAL_GetTick>
 80015ec:	4607      	mov	r7, r0
 80015ee:	682b      	ldr	r3, [r5, #0]
 80015f0:	05da      	lsls	r2, r3, #23
 80015f2:	d4d9      	bmi.n	80015a8 <HAL_RCC_OscConfig+0x1c4>
 80015f4:	f7ff fbae 	bl	8000d54 <HAL_GetTick>
 80015f8:	1bc0      	subs	r0, r0, r7
 80015fa:	2802      	cmp	r0, #2
 80015fc:	d9f7      	bls.n	80015ee <HAL_RCC_OscConfig+0x20a>
 80015fe:	e736      	b.n	800146e <HAL_RCC_OscConfig+0x8a>
 8001600:	2b05      	cmp	r3, #5
 8001602:	d104      	bne.n	800160e <HAL_RCC_OscConfig+0x22a>
 8001604:	6f2b      	ldr	r3, [r5, #112]	; 0x70
 8001606:	f043 0304 	orr.w	r3, r3, #4
 800160a:	672b      	str	r3, [r5, #112]	; 0x70
 800160c:	e7d0      	b.n	80015b0 <HAL_RCC_OscConfig+0x1cc>
 800160e:	6f2a      	ldr	r2, [r5, #112]	; 0x70
 8001610:	f022 0201 	bic.w	r2, r2, #1
 8001614:	672a      	str	r2, [r5, #112]	; 0x70
 8001616:	6f2a      	ldr	r2, [r5, #112]	; 0x70
 8001618:	f022 0204 	bic.w	r2, r2, #4
 800161c:	672a      	str	r2, [r5, #112]	; 0x70
 800161e:	2b00      	cmp	r3, #0
 8001620:	d1ca      	bne.n	80015b8 <HAL_RCC_OscConfig+0x1d4>
 8001622:	f7ff fb97 	bl	8000d54 <HAL_GetTick>
 8001626:	f241 3888 	movw	r8, #5000	; 0x1388
 800162a:	4607      	mov	r7, r0
 800162c:	6f2b      	ldr	r3, [r5, #112]	; 0x70
 800162e:	0798      	lsls	r0, r3, #30
 8001630:	d5cb      	bpl.n	80015ca <HAL_RCC_OscConfig+0x1e6>
 8001632:	f7ff fb8f 	bl	8000d54 <HAL_GetTick>
 8001636:	1bc0      	subs	r0, r0, r7
 8001638:	4540      	cmp	r0, r8
 800163a:	d9f7      	bls.n	800162c <HAL_RCC_OscConfig+0x248>
 800163c:	e717      	b.n	800146e <HAL_RCC_OscConfig+0x8a>
 800163e:	f7ff fb89 	bl	8000d54 <HAL_GetTick>
 8001642:	1bc0      	subs	r0, r0, r7
 8001644:	4540      	cmp	r0, r8
 8001646:	d9bd      	bls.n	80015c4 <HAL_RCC_OscConfig+0x1e0>
 8001648:	e711      	b.n	800146e <HAL_RCC_OscConfig+0x8a>
 800164a:	4d1b      	ldr	r5, [pc, #108]	; (80016b8 <HAL_RCC_OscConfig+0x2d4>)
 800164c:	68ab      	ldr	r3, [r5, #8]
 800164e:	f003 030c 	and.w	r3, r3, #12
 8001652:	2b08      	cmp	r3, #8
 8001654:	d047      	beq.n	80016e6 <HAL_RCC_OscConfig+0x302>
 8001656:	4e1c      	ldr	r6, [pc, #112]	; (80016c8 <HAL_RCC_OscConfig+0x2e4>)
 8001658:	2300      	movs	r3, #0
 800165a:	2802      	cmp	r0, #2
 800165c:	6033      	str	r3, [r6, #0]
 800165e:	d135      	bne.n	80016cc <HAL_RCC_OscConfig+0x2e8>
 8001660:	f7ff fb78 	bl	8000d54 <HAL_GetTick>
 8001664:	4607      	mov	r7, r0
 8001666:	682b      	ldr	r3, [r5, #0]
 8001668:	0199      	lsls	r1, r3, #6
 800166a:	d41e      	bmi.n	80016aa <HAL_RCC_OscConfig+0x2c6>
 800166c:	e9d4 3207 	ldrd	r3, r2, [r4, #28]
 8001670:	4313      	orrs	r3, r2
 8001672:	6a62      	ldr	r2, [r4, #36]	; 0x24
 8001674:	ea43 1382 	orr.w	r3, r3, r2, lsl #6
 8001678:	6ae2      	ldr	r2, [r4, #44]	; 0x2c
 800167a:	ea43 6302 	orr.w	r3, r3, r2, lsl #24
 800167e:	6aa2      	ldr	r2, [r4, #40]	; 0x28
 8001680:	4c0d      	ldr	r4, [pc, #52]	; (80016b8 <HAL_RCC_OscConfig+0x2d4>)
 8001682:	0852      	lsrs	r2, r2, #1
 8001684:	3a01      	subs	r2, #1
 8001686:	ea43 4302 	orr.w	r3, r3, r2, lsl #16
 800168a:	606b      	str	r3, [r5, #4]
 800168c:	2301      	movs	r3, #1
 800168e:	6033      	str	r3, [r6, #0]
 8001690:	f7ff fb60 	bl	8000d54 <HAL_GetTick>
 8001694:	4605      	mov	r5, r0
 8001696:	6823      	ldr	r3, [r4, #0]
 8001698:	019a      	lsls	r2, r3, #6
 800169a:	f53f aebb 	bmi.w	8001414 <HAL_RCC_OscConfig+0x30>
 800169e:	f7ff fb59 	bl	8000d54 <HAL_GetTick>
 80016a2:	1b40      	subs	r0, r0, r5
 80016a4:	2802      	cmp	r0, #2
 80016a6:	d9f6      	bls.n	8001696 <HAL_RCC_OscConfig+0x2b2>
 80016a8:	e6e1      	b.n	800146e <HAL_RCC_OscConfig+0x8a>
 80016aa:	f7ff fb53 	bl	8000d54 <HAL_GetTick>
 80016ae:	1bc0      	subs	r0, r0, r7
 80016b0:	2802      	cmp	r0, #2
 80016b2:	d9d8      	bls.n	8001666 <HAL_RCC_OscConfig+0x282>
 80016b4:	e6db      	b.n	800146e <HAL_RCC_OscConfig+0x8a>
 80016b6:	bf00      	nop
 80016b8:	40023800 	.word	0x40023800
 80016bc:	42470000 	.word	0x42470000
 80016c0:	42470e80 	.word	0x42470e80
 80016c4:	40007000 	.word	0x40007000
 80016c8:	42470060 	.word	0x42470060
 80016cc:	f7ff fb42 	bl	8000d54 <HAL_GetTick>
 80016d0:	4604      	mov	r4, r0
 80016d2:	682b      	ldr	r3, [r5, #0]
 80016d4:	019b      	lsls	r3, r3, #6
 80016d6:	f57f ae9d 	bpl.w	8001414 <HAL_RCC_OscConfig+0x30>
 80016da:	f7ff fb3b 	bl	8000d54 <HAL_GetTick>
 80016de:	1b00      	subs	r0, r0, r4
 80016e0:	2802      	cmp	r0, #2
 80016e2:	d9f6      	bls.n	80016d2 <HAL_RCC_OscConfig+0x2ee>
 80016e4:	e6c3      	b.n	800146e <HAL_RCC_OscConfig+0x8a>
 80016e6:	2801      	cmp	r0, #1
 80016e8:	f43f aec2 	beq.w	8001470 <HAL_RCC_OscConfig+0x8c>
 80016ec:	6868      	ldr	r0, [r5, #4]
 80016ee:	69e3      	ldr	r3, [r4, #28]
 80016f0:	f400 0280 	and.w	r2, r0, #4194304	; 0x400000
 80016f4:	429a      	cmp	r2, r3
 80016f6:	f47f ae79 	bne.w	80013ec <HAL_RCC_OscConfig+0x8>
 80016fa:	6a22      	ldr	r2, [r4, #32]
 80016fc:	f000 033f 	and.w	r3, r0, #63	; 0x3f
 8001700:	4293      	cmp	r3, r2
 8001702:	f47f ae73 	bne.w	80013ec <HAL_RCC_OscConfig+0x8>
 8001706:	6a62      	ldr	r2, [r4, #36]	; 0x24
 8001708:	f647 73c0 	movw	r3, #32704	; 0x7fc0
 800170c:	4003      	ands	r3, r0
 800170e:	4293      	cmp	r3, r2
 8001710:	f47f ae6c 	bne.w	80013ec <HAL_RCC_OscConfig+0x8>
 8001714:	6aa2      	ldr	r2, [r4, #40]	; 0x28
 8001716:	f400 3340 	and.w	r3, r0, #196608	; 0x30000
 800171a:	4293      	cmp	r3, r2
 800171c:	f47f ae66 	bne.w	80013ec <HAL_RCC_OscConfig+0x8>
 8001720:	6ae3      	ldr	r3, [r4, #44]	; 0x2c
 8001722:	f000 6070 	and.w	r0, r0, #251658240	; 0xf000000
 8001726:	1ac0      	subs	r0, r0, r3
 8001728:	bf18      	it	ne
 800172a:	2001      	movne	r0, #1
 800172c:	e6a0      	b.n	8001470 <HAL_RCC_OscConfig+0x8c>
 800172e:	bf00      	nop

08001730 <HAL_RCC_GetSysClockFreq>:
 8001730:	4913      	ldr	r1, [pc, #76]	; (8001780 <HAL_RCC_GetSysClockFreq+0x50>)
 8001732:	b508      	push	{r3, lr}
 8001734:	688b      	ldr	r3, [r1, #8]
 8001736:	f003 030c 	and.w	r3, r3, #12
 800173a:	2b04      	cmp	r3, #4
 800173c:	d003      	beq.n	8001746 <HAL_RCC_GetSysClockFreq+0x16>
 800173e:	2b08      	cmp	r3, #8
 8001740:	d003      	beq.n	800174a <HAL_RCC_GetSysClockFreq+0x1a>
 8001742:	4810      	ldr	r0, [pc, #64]	; (8001784 <HAL_RCC_GetSysClockFreq+0x54>)
 8001744:	e000      	b.n	8001748 <HAL_RCC_GetSysClockFreq+0x18>
 8001746:	4810      	ldr	r0, [pc, #64]	; (8001788 <HAL_RCC_GetSysClockFreq+0x58>)
 8001748:	bd08      	pop	{r3, pc}
 800174a:	684a      	ldr	r2, [r1, #4]
 800174c:	684b      	ldr	r3, [r1, #4]
 800174e:	6849      	ldr	r1, [r1, #4]
 8001750:	f413 0380 	ands.w	r3, r3, #4194304	; 0x400000
 8001754:	bf14      	ite	ne
 8001756:	480c      	ldrne	r0, [pc, #48]	; (8001788 <HAL_RCC_GetSysClockFreq+0x58>)
 8001758:	480a      	ldreq	r0, [pc, #40]	; (8001784 <HAL_RCC_GetSysClockFreq+0x54>)
 800175a:	f3c1 1188 	ubfx	r1, r1, #6, #9
 800175e:	bf18      	it	ne
 8001760:	2300      	movne	r3, #0
 8001762:	f002 023f 	and.w	r2, r2, #63	; 0x3f
 8001766:	fba1 0100 	umull	r0, r1, r1, r0
 800176a:	f7fe fd77 	bl	800025c <__aeabi_uldivmod>
 800176e:	4b04      	ldr	r3, [pc, #16]	; (8001780 <HAL_RCC_GetSysClockFreq+0x50>)
 8001770:	685b      	ldr	r3, [r3, #4]
 8001772:	f3c3 4301 	ubfx	r3, r3, #16, #2
 8001776:	3301      	adds	r3, #1
 8001778:	005b      	lsls	r3, r3, #1
 800177a:	fbb0 f0f3 	udiv	r0, r0, r3
 800177e:	e7e3      	b.n	8001748 <HAL_RCC_GetSysClockFreq+0x18>
 8001780:	40023800 	.word	0x40023800
 8001784:	00f42400 	.word	0x00f42400
 8001788:	017d7840 	.word	0x017d7840

0800178c <HAL_RCC_ClockConfig>:
 800178c:	e92d 41f0 	stmdb	sp!, {r4, r5, r6, r7, r8, lr}
 8001790:	460d      	mov	r5, r1
 8001792:	4604      	mov	r4, r0
 8001794:	b910      	cbnz	r0, 800179c <HAL_RCC_ClockConfig+0x10>
 8001796:	2001      	movs	r0, #1
 8001798:	e8bd 81f0 	ldmia.w	sp!, {r4, r5, r6, r7, r8, pc}
 800179c:	4b43      	ldr	r3, [pc, #268]	; (80018ac <HAL_RCC_ClockConfig+0x120>)
 800179e:	681a      	ldr	r2, [r3, #0]
 80017a0:	f002 020f 	and.w	r2, r2, #15
 80017a4:	428a      	cmp	r2, r1
 80017a6:	d328      	bcc.n	80017fa <HAL_RCC_ClockConfig+0x6e>
 80017a8:	6821      	ldr	r1, [r4, #0]
 80017aa:	078f      	lsls	r7, r1, #30
 80017ac:	d42d      	bmi.n	800180a <HAL_RCC_ClockConfig+0x7e>
 80017ae:	07c8      	lsls	r0, r1, #31
 80017b0:	d440      	bmi.n	8001834 <HAL_RCC_ClockConfig+0xa8>
 80017b2:	4b3e      	ldr	r3, [pc, #248]	; (80018ac <HAL_RCC_ClockConfig+0x120>)
 80017b4:	681a      	ldr	r2, [r3, #0]
 80017b6:	f002 020f 	and.w	r2, r2, #15
 80017ba:	42aa      	cmp	r2, r5
 80017bc:	d865      	bhi.n	800188a <HAL_RCC_ClockConfig+0xfe>
 80017be:	6822      	ldr	r2, [r4, #0]
 80017c0:	0751      	lsls	r1, r2, #29
 80017c2:	d46b      	bmi.n	800189c <HAL_RCC_ClockConfig+0x110>
 80017c4:	0713      	lsls	r3, r2, #28
 80017c6:	d507      	bpl.n	80017d8 <HAL_RCC_ClockConfig+0x4c>
 80017c8:	4a39      	ldr	r2, [pc, #228]	; (80018b0 <HAL_RCC_ClockConfig+0x124>)
 80017ca:	6921      	ldr	r1, [r4, #16]
 80017cc:	6893      	ldr	r3, [r2, #8]
 80017ce:	f423 4360 	bic.w	r3, r3, #57344	; 0xe000
 80017d2:	ea43 03c1 	orr.w	r3, r3, r1, lsl #3
 80017d6:	6093      	str	r3, [r2, #8]
 80017d8:	f7ff ffaa 	bl	8001730 <HAL_RCC_GetSysClockFreq>
 80017dc:	4b34      	ldr	r3, [pc, #208]	; (80018b0 <HAL_RCC_ClockConfig+0x124>)
 80017de:	4a35      	ldr	r2, [pc, #212]	; (80018b4 <HAL_RCC_ClockConfig+0x128>)
 80017e0:	689b      	ldr	r3, [r3, #8]
 80017e2:	f3c3 1303 	ubfx	r3, r3, #4, #4
 80017e6:	5cd3      	ldrb	r3, [r2, r3]
 80017e8:	40d8      	lsrs	r0, r3
 80017ea:	4b33      	ldr	r3, [pc, #204]	; (80018b8 <HAL_RCC_ClockConfig+0x12c>)
 80017ec:	6018      	str	r0, [r3, #0]
 80017ee:	4b33      	ldr	r3, [pc, #204]	; (80018bc <HAL_RCC_ClockConfig+0x130>)
 80017f0:	6818      	ldr	r0, [r3, #0]
 80017f2:	f7ff f9f9 	bl	8000be8 <HAL_InitTick>
 80017f6:	2000      	movs	r0, #0
 80017f8:	e7ce      	b.n	8001798 <HAL_RCC_ClockConfig+0xc>
 80017fa:	b2ca      	uxtb	r2, r1
 80017fc:	701a      	strb	r2, [r3, #0]
 80017fe:	681b      	ldr	r3, [r3, #0]
 8001800:	f003 030f 	and.w	r3, r3, #15
 8001804:	428b      	cmp	r3, r1
 8001806:	d1c6      	bne.n	8001796 <HAL_RCC_ClockConfig+0xa>
 8001808:	e7ce      	b.n	80017a8 <HAL_RCC_ClockConfig+0x1c>
 800180a:	4b29      	ldr	r3, [pc, #164]	; (80018b0 <HAL_RCC_ClockConfig+0x124>)
 800180c:	f011 0f04 	tst.w	r1, #4
 8001810:	bf1e      	ittt	ne
 8001812:	689a      	ldrne	r2, [r3, #8]
 8001814:	f442 52e0 	orrne.w	r2, r2, #7168	; 0x1c00
 8001818:	609a      	strne	r2, [r3, #8]
 800181a:	070e      	lsls	r6, r1, #28
 800181c:	bf42      	ittt	mi
 800181e:	689a      	ldrmi	r2, [r3, #8]
 8001820:	f442 4260 	orrmi.w	r2, r2, #57344	; 0xe000
 8001824:	609a      	strmi	r2, [r3, #8]
 8001826:	689a      	ldr	r2, [r3, #8]
 8001828:	68a0      	ldr	r0, [r4, #8]
 800182a:	f022 02f0 	bic.w	r2, r2, #240	; 0xf0
 800182e:	4302      	orrs	r2, r0
 8001830:	609a      	str	r2, [r3, #8]
 8001832:	e7bc      	b.n	80017ae <HAL_RCC_ClockConfig+0x22>
 8001834:	6862      	ldr	r2, [r4, #4]
 8001836:	4b1e      	ldr	r3, [pc, #120]	; (80018b0 <HAL_RCC_ClockConfig+0x124>)
 8001838:	2a01      	cmp	r2, #1
 800183a:	d11c      	bne.n	8001876 <HAL_RCC_ClockConfig+0xea>
 800183c:	681b      	ldr	r3, [r3, #0]
 800183e:	f413 3f00 	tst.w	r3, #131072	; 0x20000
 8001842:	d0a8      	beq.n	8001796 <HAL_RCC_ClockConfig+0xa>
 8001844:	4e1a      	ldr	r6, [pc, #104]	; (80018b0 <HAL_RCC_ClockConfig+0x124>)
 8001846:	68b3      	ldr	r3, [r6, #8]
 8001848:	f023 0303 	bic.w	r3, r3, #3
 800184c:	4313      	orrs	r3, r2
 800184e:	60b3      	str	r3, [r6, #8]
 8001850:	f7ff fa80 	bl	8000d54 <HAL_GetTick>
 8001854:	f241 3888 	movw	r8, #5000	; 0x1388
 8001858:	4607      	mov	r7, r0
 800185a:	68b3      	ldr	r3, [r6, #8]
 800185c:	6862      	ldr	r2, [r4, #4]
 800185e:	f003 030c 	and.w	r3, r3, #12
 8001862:	ebb3 0f82 	cmp.w	r3, r2, lsl #2
 8001866:	d0a4      	beq.n	80017b2 <HAL_RCC_ClockConfig+0x26>
 8001868:	f7ff fa74 	bl	8000d54 <HAL_GetTick>
 800186c:	1bc0      	subs	r0, r0, r7
 800186e:	4540      	cmp	r0, r8
 8001870:	d9f3      	bls.n	800185a <HAL_RCC_ClockConfig+0xce>
 8001872:	2003      	movs	r0, #3
 8001874:	e790      	b.n	8001798 <HAL_RCC_ClockConfig+0xc>
 8001876:	1e91      	subs	r1, r2, #2
 8001878:	2901      	cmp	r1, #1
 800187a:	681b      	ldr	r3, [r3, #0]
 800187c:	d802      	bhi.n	8001884 <HAL_RCC_ClockConfig+0xf8>
 800187e:	f013 7f00 	tst.w	r3, #33554432	; 0x2000000
 8001882:	e7de      	b.n	8001842 <HAL_RCC_ClockConfig+0xb6>
 8001884:	f013 0f02 	tst.w	r3, #2
 8001888:	e7db      	b.n	8001842 <HAL_RCC_ClockConfig+0xb6>
 800188a:	b2ea      	uxtb	r2, r5
 800188c:	701a      	strb	r2, [r3, #0]
 800188e:	681b      	ldr	r3, [r3, #0]
 8001890:	f003 030f 	and.w	r3, r3, #15
 8001894:	42ab      	cmp	r3, r5
 8001896:	f47f af7e 	bne.w	8001796 <HAL_RCC_ClockConfig+0xa>
 800189a:	e790      	b.n	80017be <HAL_RCC_ClockConfig+0x32>
 800189c:	4904      	ldr	r1, [pc, #16]	; (80018b0 <HAL_RCC_ClockConfig+0x124>)
 800189e:	68e0      	ldr	r0, [r4, #12]
 80018a0:	688b      	ldr	r3, [r1, #8]
 80018a2:	f423 53e0 	bic.w	r3, r3, #7168	; 0x1c00
 80018a6:	4303      	orrs	r3, r0
 80018a8:	608b      	str	r3, [r1, #8]
 80018aa:	e78b      	b.n	80017c4 <HAL_RCC_ClockConfig+0x38>
 80018ac:	40023c00 	.word	0x40023c00
 80018b0:	40023800 	.word	0x40023800
 80018b4:	08005394 	.word	0x08005394
 80018b8:	20000000 	.word	0x20000000
 80018bc:	20000008 	.word	0x20000008

080018c0 <HAL_RCC_GetPCLK1Freq>:
 80018c0:	4b04      	ldr	r3, [pc, #16]	; (80018d4 <HAL_RCC_GetPCLK1Freq+0x14>)
 80018c2:	4a05      	ldr	r2, [pc, #20]	; (80018d8 <HAL_RCC_GetPCLK1Freq+0x18>)
 80018c4:	689b      	ldr	r3, [r3, #8]
 80018c6:	f3c3 2382 	ubfx	r3, r3, #10, #3
 80018ca:	5cd3      	ldrb	r3, [r2, r3]
 80018cc:	4a03      	ldr	r2, [pc, #12]	; (80018dc <HAL_RCC_GetPCLK1Freq+0x1c>)
 80018ce:	6810      	ldr	r0, [r2, #0]
 80018d0:	40d8      	lsrs	r0, r3
 80018d2:	4770      	bx	lr
 80018d4:	40023800 	.word	0x40023800
 80018d8:	080053a4 	.word	0x080053a4
 80018dc:	20000000 	.word	0x20000000

080018e0 <HAL_RCC_GetPCLK2Freq>:
 80018e0:	4b04      	ldr	r3, [pc, #16]	; (80018f4 <HAL_RCC_GetPCLK2Freq+0x14>)
 80018e2:	4a05      	ldr	r2, [pc, #20]	; (80018f8 <HAL_RCC_GetPCLK2Freq+0x18>)
 80018e4:	689b      	ldr	r3, [r3, #8]
 80018e6:	f3c3 3342 	ubfx	r3, r3, #13, #3
 80018ea:	5cd3      	ldrb	r3, [r2, r3]
 80018ec:	4a03      	ldr	r2, [pc, #12]	; (80018fc <HAL_RCC_GetPCLK2Freq+0x1c>)
 80018ee:	6810      	ldr	r0, [r2, #0]
 80018f0:	40d8      	lsrs	r0, r3
 80018f2:	4770      	bx	lr
 80018f4:	40023800 	.word	0x40023800
 80018f8:	080053a4 	.word	0x080053a4
 80018fc:	20000000 	.word	0x20000000

08001900 <HAL_RCC_GetClockConfig>:
 8001900:	230f      	movs	r3, #15
 8001902:	6003      	str	r3, [r0, #0]
 8001904:	4b0b      	ldr	r3, [pc, #44]	; (8001934 <HAL_RCC_GetClockConfig+0x34>)
 8001906:	689a      	ldr	r2, [r3, #8]
 8001908:	f002 0203 	and.w	r2, r2, #3
 800190c:	6042      	str	r2, [r0, #4]
 800190e:	689a      	ldr	r2, [r3, #8]
 8001910:	f002 02f0 	and.w	r2, r2, #240	; 0xf0
 8001914:	6082      	str	r2, [r0, #8]
 8001916:	689a      	ldr	r2, [r3, #8]
 8001918:	f402 52e0 	and.w	r2, r2, #7168	; 0x1c00
 800191c:	60c2      	str	r2, [r0, #12]
 800191e:	689b      	ldr	r3, [r3, #8]
 8001920:	08db      	lsrs	r3, r3, #3
 8001922:	f403 53e0 	and.w	r3, r3, #7168	; 0x1c00
 8001926:	6103      	str	r3, [r0, #16]
 8001928:	4b03      	ldr	r3, [pc, #12]	; (8001938 <HAL_RCC_GetClockConfig+0x38>)
 800192a:	681b      	ldr	r3, [r3, #0]
 800192c:	f003 030f 	and.w	r3, r3, #15
 8001930:	600b      	str	r3, [r1, #0]
 8001932:	4770      	bx	lr
 8001934:	40023800 	.word	0x40023800
 8001938:	40023c00 	.word	0x40023c00

0800193c <TIM_OC1_SetConfig>:
 800193c:	6a03      	ldr	r3, [r0, #32]
 800193e:	f023 0301 	bic.w	r3, r3, #1
 8001942:	6203      	str	r3, [r0, #32]
 8001944:	6a03      	ldr	r3, [r0, #32]
 8001946:	b570      	push	{r4, r5, r6, lr}
 8001948:	6844      	ldr	r4, [r0, #4]
 800194a:	6982      	ldr	r2, [r0, #24]
 800194c:	680d      	ldr	r5, [r1, #0]
 800194e:	f022 0273 	bic.w	r2, r2, #115	; 0x73
 8001952:	432a      	orrs	r2, r5
 8001954:	688d      	ldr	r5, [r1, #8]
 8001956:	f023 0302 	bic.w	r3, r3, #2
 800195a:	432b      	orrs	r3, r5
 800195c:	4d0e      	ldr	r5, [pc, #56]	; (8001998 <TIM_OC1_SetConfig+0x5c>)
 800195e:	42a8      	cmp	r0, r5
 8001960:	d002      	beq.n	8001968 <TIM_OC1_SetConfig+0x2c>
 8001962:	4e0e      	ldr	r6, [pc, #56]	; (800199c <TIM_OC1_SetConfig+0x60>)
 8001964:	42b0      	cmp	r0, r6
 8001966:	d110      	bne.n	800198a <TIM_OC1_SetConfig+0x4e>
 8001968:	68ce      	ldr	r6, [r1, #12]
 800196a:	f023 0308 	bic.w	r3, r3, #8
 800196e:	4333      	orrs	r3, r6
 8001970:	42a8      	cmp	r0, r5
 8001972:	f023 0304 	bic.w	r3, r3, #4
 8001976:	d002      	beq.n	800197e <TIM_OC1_SetConfig+0x42>
 8001978:	4d08      	ldr	r5, [pc, #32]	; (800199c <TIM_OC1_SetConfig+0x60>)
 800197a:	42a8      	cmp	r0, r5
 800197c:	d105      	bne.n	800198a <TIM_OC1_SetConfig+0x4e>
 800197e:	e9d1 5605 	ldrd	r5, r6, [r1, #20]
 8001982:	f424 7440 	bic.w	r4, r4, #768	; 0x300
 8001986:	4335      	orrs	r5, r6
 8001988:	432c      	orrs	r4, r5
 800198a:	6044      	str	r4, [r0, #4]
 800198c:	6182      	str	r2, [r0, #24]
 800198e:	684a      	ldr	r2, [r1, #4]
 8001990:	6342      	str	r2, [r0, #52]	; 0x34
 8001992:	6203      	str	r3, [r0, #32]
 8001994:	bd70      	pop	{r4, r5, r6, pc}
 8001996:	bf00      	nop
 8001998:	40010000 	.word	0x40010000
 800199c:	40010400 	.word	0x40010400

080019a0 <TIM_OC3_SetConfig>:
 80019a0:	6a03      	ldr	r3, [r0, #32]
 80019a2:	f423 7380 	bic.w	r3, r3, #256	; 0x100
 80019a6:	6203      	str	r3, [r0, #32]
 80019a8:	6a03      	ldr	r3, [r0, #32]
 80019aa:	b570      	push	{r4, r5, r6, lr}
 80019ac:	6844      	ldr	r4, [r0, #4]
 80019ae:	69c2      	ldr	r2, [r0, #28]
 80019b0:	680d      	ldr	r5, [r1, #0]
 80019b2:	f022 0273 	bic.w	r2, r2, #115	; 0x73
 80019b6:	432a      	orrs	r2, r5
 80019b8:	688d      	ldr	r5, [r1, #8]
 80019ba:	f423 7300 	bic.w	r3, r3, #512	; 0x200
 80019be:	ea43 2305 	orr.w	r3, r3, r5, lsl #8
 80019c2:	4d11      	ldr	r5, [pc, #68]	; (8001a08 <TIM_OC3_SetConfig+0x68>)
 80019c4:	42a8      	cmp	r0, r5
 80019c6:	d003      	beq.n	80019d0 <TIM_OC3_SetConfig+0x30>
 80019c8:	f505 6580 	add.w	r5, r5, #1024	; 0x400
 80019cc:	42a8      	cmp	r0, r5
 80019ce:	d114      	bne.n	80019fa <TIM_OC3_SetConfig+0x5a>
 80019d0:	68cd      	ldr	r5, [r1, #12]
 80019d2:	f423 6300 	bic.w	r3, r3, #2048	; 0x800
 80019d6:	ea43 2305 	orr.w	r3, r3, r5, lsl #8
 80019da:	4d0b      	ldr	r5, [pc, #44]	; (8001a08 <TIM_OC3_SetConfig+0x68>)
 80019dc:	42a8      	cmp	r0, r5
 80019de:	f423 6380 	bic.w	r3, r3, #1024	; 0x400
 80019e2:	d003      	beq.n	80019ec <TIM_OC3_SetConfig+0x4c>
 80019e4:	f505 6580 	add.w	r5, r5, #1024	; 0x400
 80019e8:	42a8      	cmp	r0, r5
 80019ea:	d106      	bne.n	80019fa <TIM_OC3_SetConfig+0x5a>
 80019ec:	e9d1 5605 	ldrd	r5, r6, [r1, #20]
 80019f0:	f424 5440 	bic.w	r4, r4, #12288	; 0x3000
 80019f4:	4335      	orrs	r5, r6
 80019f6:	ea44 1405 	orr.w	r4, r4, r5, lsl #4
 80019fa:	6044      	str	r4, [r0, #4]
 80019fc:	61c2      	str	r2, [r0, #28]
 80019fe:	684a      	ldr	r2, [r1, #4]
 8001a00:	63c2      	str	r2, [r0, #60]	; 0x3c
 8001a02:	6203      	str	r3, [r0, #32]
 8001a04:	bd70      	pop	{r4, r5, r6, pc}
 8001a06:	bf00      	nop
 8001a08:	40010000 	.word	0x40010000

08001a0c <TIM_OC4_SetConfig>:
 8001a0c:	6a03      	ldr	r3, [r0, #32]
 8001a0e:	f423 5380 	bic.w	r3, r3, #4096	; 0x1000
 8001a12:	6203      	str	r3, [r0, #32]
 8001a14:	6a03      	ldr	r3, [r0, #32]
 8001a16:	b530      	push	{r4, r5, lr}
 8001a18:	6844      	ldr	r4, [r0, #4]
 8001a1a:	69c2      	ldr	r2, [r0, #28]
 8001a1c:	680d      	ldr	r5, [r1, #0]
 8001a1e:	f422 42e6 	bic.w	r2, r2, #29440	; 0x7300
 8001a22:	ea42 2205 	orr.w	r2, r2, r5, lsl #8
 8001a26:	688d      	ldr	r5, [r1, #8]
 8001a28:	f423 5300 	bic.w	r3, r3, #8192	; 0x2000
 8001a2c:	ea43 3305 	orr.w	r3, r3, r5, lsl #12
 8001a30:	4d08      	ldr	r5, [pc, #32]	; (8001a54 <TIM_OC4_SetConfig+0x48>)
 8001a32:	42a8      	cmp	r0, r5
 8001a34:	d003      	beq.n	8001a3e <TIM_OC4_SetConfig+0x32>
 8001a36:	f505 6580 	add.w	r5, r5, #1024	; 0x400
 8001a3a:	42a8      	cmp	r0, r5
 8001a3c:	d104      	bne.n	8001a48 <TIM_OC4_SetConfig+0x3c>
 8001a3e:	694d      	ldr	r5, [r1, #20]
 8001a40:	f424 4480 	bic.w	r4, r4, #16384	; 0x4000
 8001a44:	ea44 1485 	orr.w	r4, r4, r5, lsl #6
 8001a48:	6044      	str	r4, [r0, #4]
 8001a4a:	61c2      	str	r2, [r0, #28]
 8001a4c:	684a      	ldr	r2, [r1, #4]
 8001a4e:	6402      	str	r2, [r0, #64]	; 0x40
 8001a50:	6203      	str	r3, [r0, #32]
 8001a52:	bd30      	pop	{r4, r5, pc}
 8001a54:	40010000 	.word	0x40010000

08001a58 <HAL_TIM_Base_MspInit>:
 8001a58:	4770      	bx	lr

08001a5a <HAL_TIM_Base_Start_IT>:
 8001a5a:	6803      	ldr	r3, [r0, #0]
 8001a5c:	68da      	ldr	r2, [r3, #12]
 8001a5e:	f042 0201 	orr.w	r2, r2, #1
 8001a62:	60da      	str	r2, [r3, #12]
 8001a64:	689a      	ldr	r2, [r3, #8]
 8001a66:	f002 0207 	and.w	r2, r2, #7
 8001a6a:	2a06      	cmp	r2, #6
 8001a6c:	bf1e      	ittt	ne
 8001a6e:	681a      	ldrne	r2, [r3, #0]
 8001a70:	f042 0201 	orrne.w	r2, r2, #1
 8001a74:	601a      	strne	r2, [r3, #0]
 8001a76:	2000      	movs	r0, #0
 8001a78:	4770      	bx	lr

08001a7a <HAL_TIM_OC_DelayElapsedCallback>:
 8001a7a:	4770      	bx	lr

08001a7c <HAL_TIM_IC_CaptureCallback>:
 8001a7c:	4770      	bx	lr

08001a7e <HAL_TIM_PWM_PulseFinishedCallback>:
 8001a7e:	4770      	bx	lr

08001a80 <HAL_TIM_TriggerCallback>:
 8001a80:	4770      	bx	lr

08001a82 <HAL_TIM_IRQHandler>:
 8001a82:	6803      	ldr	r3, [r0, #0]
 8001a84:	691a      	ldr	r2, [r3, #16]
 8001a86:	0791      	lsls	r1, r2, #30
 8001a88:	b510      	push	{r4, lr}
 8001a8a:	4604      	mov	r4, r0
 8001a8c:	d50e      	bpl.n	8001aac <HAL_TIM_IRQHandler+0x2a>
 8001a8e:	68da      	ldr	r2, [r3, #12]
 8001a90:	0792      	lsls	r2, r2, #30
 8001a92:	d50b      	bpl.n	8001aac <HAL_TIM_IRQHandler+0x2a>
 8001a94:	f06f 0202 	mvn.w	r2, #2
 8001a98:	611a      	str	r2, [r3, #16]
 8001a9a:	699b      	ldr	r3, [r3, #24]
 8001a9c:	2201      	movs	r2, #1
 8001a9e:	079b      	lsls	r3, r3, #30
 8001aa0:	7702      	strb	r2, [r0, #28]
 8001aa2:	d077      	beq.n	8001b94 <HAL_TIM_IRQHandler+0x112>
 8001aa4:	f7ff ffea 	bl	8001a7c <HAL_TIM_IC_CaptureCallback>
 8001aa8:	2300      	movs	r3, #0
 8001aaa:	7723      	strb	r3, [r4, #28]
 8001aac:	6823      	ldr	r3, [r4, #0]
 8001aae:	691a      	ldr	r2, [r3, #16]
 8001ab0:	0750      	lsls	r0, r2, #29
 8001ab2:	d510      	bpl.n	8001ad6 <HAL_TIM_IRQHandler+0x54>
 8001ab4:	68da      	ldr	r2, [r3, #12]
 8001ab6:	0751      	lsls	r1, r2, #29
 8001ab8:	d50d      	bpl.n	8001ad6 <HAL_TIM_IRQHandler+0x54>
 8001aba:	f06f 0204 	mvn.w	r2, #4
 8001abe:	611a      	str	r2, [r3, #16]
 8001ac0:	699b      	ldr	r3, [r3, #24]
 8001ac2:	2202      	movs	r2, #2
 8001ac4:	f413 7f40 	tst.w	r3, #768	; 0x300
 8001ac8:	7722      	strb	r2, [r4, #28]
 8001aca:	4620      	mov	r0, r4
 8001acc:	d068      	beq.n	8001ba0 <HAL_TIM_IRQHandler+0x11e>
 8001ace:	f7ff ffd5 	bl	8001a7c <HAL_TIM_IC_CaptureCallback>
 8001ad2:	2300      	movs	r3, #0
 8001ad4:	7723      	strb	r3, [r4, #28]
 8001ad6:	6823      	ldr	r3, [r4, #0]
 8001ad8:	691a      	ldr	r2, [r3, #16]
 8001ada:	0712      	lsls	r2, r2, #28
 8001adc:	d50f      	bpl.n	8001afe <HAL_TIM_IRQHandler+0x7c>
 8001ade:	68da      	ldr	r2, [r3, #12]
 8001ae0:	0710      	lsls	r0, r2, #28
 8001ae2:	d50c      	bpl.n	8001afe <HAL_TIM_IRQHandler+0x7c>
 8001ae4:	f06f 0208 	mvn.w	r2, #8
 8001ae8:	611a      	str	r2, [r3, #16]
 8001aea:	69db      	ldr	r3, [r3, #28]
 8001aec:	2204      	movs	r2, #4
 8001aee:	0799      	lsls	r1, r3, #30
 8001af0:	7722      	strb	r2, [r4, #28]
 8001af2:	4620      	mov	r0, r4
 8001af4:	d05a      	beq.n	8001bac <HAL_TIM_IRQHandler+0x12a>
 8001af6:	f7ff ffc1 	bl	8001a7c <HAL_TIM_IC_CaptureCallback>
 8001afa:	2300      	movs	r3, #0
 8001afc:	7723      	strb	r3, [r4, #28]
 8001afe:	6823      	ldr	r3, [r4, #0]
 8001b00:	691a      	ldr	r2, [r3, #16]
 8001b02:	06d2      	lsls	r2, r2, #27
 8001b04:	d510      	bpl.n	8001b28 <HAL_TIM_IRQHandler+0xa6>
 8001b06:	68da      	ldr	r2, [r3, #12]
 8001b08:	06d0      	lsls	r0, r2, #27
 8001b0a:	d50d      	bpl.n	8001b28 <HAL_TIM_IRQHandler+0xa6>
 8001b0c:	f06f 0210 	mvn.w	r2, #16
 8001b10:	611a      	str	r2, [r3, #16]
 8001b12:	69db      	ldr	r3, [r3, #28]
 8001b14:	2208      	movs	r2, #8
 8001b16:	f413 7f40 	tst.w	r3, #768	; 0x300
 8001b1a:	7722      	strb	r2, [r4, #28]
 8001b1c:	4620      	mov	r0, r4
 8001b1e:	d04b      	beq.n	8001bb8 <HAL_TIM_IRQHandler+0x136>
 8001b20:	f7ff ffac 	bl	8001a7c <HAL_TIM_IC_CaptureCallback>
 8001b24:	2300      	movs	r3, #0
 8001b26:	7723      	strb	r3, [r4, #28]
 8001b28:	6823      	ldr	r3, [r4, #0]
 8001b2a:	691a      	ldr	r2, [r3, #16]
 8001b2c:	07d1      	lsls	r1, r2, #31
 8001b2e:	d508      	bpl.n	8001b42 <HAL_TIM_IRQHandler+0xc0>
 8001b30:	68da      	ldr	r2, [r3, #12]
 8001b32:	07d2      	lsls	r2, r2, #31
 8001b34:	d505      	bpl.n	8001b42 <HAL_TIM_IRQHandler+0xc0>
 8001b36:	f06f 0201 	mvn.w	r2, #1
 8001b3a:	611a      	str	r2, [r3, #16]
 8001b3c:	4620      	mov	r0, r4
 8001b3e:	f7fe fd59 	bl	80005f4 <HAL_TIM_PeriodElapsedCallback>
 8001b42:	6823      	ldr	r3, [r4, #0]
 8001b44:	691a      	ldr	r2, [r3, #16]
 8001b46:	0610      	lsls	r0, r2, #24
 8001b48:	d508      	bpl.n	8001b5c <HAL_TIM_IRQHandler+0xda>
 8001b4a:	68da      	ldr	r2, [r3, #12]
 8001b4c:	0611      	lsls	r1, r2, #24
 8001b4e:	d505      	bpl.n	8001b5c <HAL_TIM_IRQHandler+0xda>
 8001b50:	f06f 0280 	mvn.w	r2, #128	; 0x80
 8001b54:	611a      	str	r2, [r3, #16]
 8001b56:	4620      	mov	r0, r4
 8001b58:	f000 f9db 	bl	8001f12 <HAL_TIMEx_BreakCallback>
 8001b5c:	6823      	ldr	r3, [r4, #0]
 8001b5e:	691a      	ldr	r2, [r3, #16]
 8001b60:	0652      	lsls	r2, r2, #25
 8001b62:	d508      	bpl.n	8001b76 <HAL_TIM_IRQHandler+0xf4>
 8001b64:	68da      	ldr	r2, [r3, #12]
 8001b66:	0650      	lsls	r0, r2, #25
 8001b68:	d505      	bpl.n	8001b76 <HAL_TIM_IRQHandler+0xf4>
 8001b6a:	f06f 0240 	mvn.w	r2, #64	; 0x40
 8001b6e:	611a      	str	r2, [r3, #16]
 8001b70:	4620      	mov	r0, r4
 8001b72:	f7ff ff85 	bl	8001a80 <HAL_TIM_TriggerCallback>
 8001b76:	6823      	ldr	r3, [r4, #0]
 8001b78:	691a      	ldr	r2, [r3, #16]
 8001b7a:	0691      	lsls	r1, r2, #26
 8001b7c:	d522      	bpl.n	8001bc4 <HAL_TIM_IRQHandler+0x142>
 8001b7e:	68da      	ldr	r2, [r3, #12]
 8001b80:	0692      	lsls	r2, r2, #26
 8001b82:	d51f      	bpl.n	8001bc4 <HAL_TIM_IRQHandler+0x142>
 8001b84:	f06f 0220 	mvn.w	r2, #32
 8001b88:	4620      	mov	r0, r4
 8001b8a:	611a      	str	r2, [r3, #16]
 8001b8c:	e8bd 4010 	ldmia.w	sp!, {r4, lr}
 8001b90:	f000 b9be 	b.w	8001f10 <HAL_TIMEx_CommutCallback>
 8001b94:	f7ff ff71 	bl	8001a7a <HAL_TIM_OC_DelayElapsedCallback>
 8001b98:	4620      	mov	r0, r4
 8001b9a:	f7ff ff70 	bl	8001a7e <HAL_TIM_PWM_PulseFinishedCallback>
 8001b9e:	e783      	b.n	8001aa8 <HAL_TIM_IRQHandler+0x26>
 8001ba0:	f7ff ff6b 	bl	8001a7a <HAL_TIM_OC_DelayElapsedCallback>
 8001ba4:	4620      	mov	r0, r4
 8001ba6:	f7ff ff6a 	bl	8001a7e <HAL_TIM_PWM_PulseFinishedCallback>
 8001baa:	e792      	b.n	8001ad2 <HAL_TIM_IRQHandler+0x50>
 8001bac:	f7ff ff65 	bl	8001a7a <HAL_TIM_OC_DelayElapsedCallback>
 8001bb0:	4620      	mov	r0, r4
 8001bb2:	f7ff ff64 	bl	8001a7e <HAL_TIM_PWM_PulseFinishedCallback>
 8001bb6:	e7a0      	b.n	8001afa <HAL_TIM_IRQHandler+0x78>
 8001bb8:	f7ff ff5f 	bl	8001a7a <HAL_TIM_OC_DelayElapsedCallback>
 8001bbc:	4620      	mov	r0, r4
 8001bbe:	f7ff ff5e 	bl	8001a7e <HAL_TIM_PWM_PulseFinishedCallback>
 8001bc2:	e7af      	b.n	8001b24 <HAL_TIM_IRQHandler+0xa2>
 8001bc4:	bd10      	pop	{r4, pc}
	...

08001bc8 <TIM_Base_SetConfig>:
 8001bc8:	4a30      	ldr	r2, [pc, #192]	; (8001c8c <TIM_Base_SetConfig+0xc4>)
 8001bca:	6803      	ldr	r3, [r0, #0]
 8001bcc:	4290      	cmp	r0, r2
 8001bce:	d012      	beq.n	8001bf6 <TIM_Base_SetConfig+0x2e>
 8001bd0:	f1b0 4f80 	cmp.w	r0, #1073741824	; 0x40000000
 8001bd4:	d00f      	beq.n	8001bf6 <TIM_Base_SetConfig+0x2e>
 8001bd6:	f5a2 427c 	sub.w	r2, r2, #64512	; 0xfc00
 8001bda:	4290      	cmp	r0, r2
 8001bdc:	d00b      	beq.n	8001bf6 <TIM_Base_SetConfig+0x2e>
 8001bde:	f502 6280 	add.w	r2, r2, #1024	; 0x400
 8001be2:	4290      	cmp	r0, r2
 8001be4:	d007      	beq.n	8001bf6 <TIM_Base_SetConfig+0x2e>
 8001be6:	f502 6280 	add.w	r2, r2, #1024	; 0x400
 8001bea:	4290      	cmp	r0, r2
 8001bec:	d003      	beq.n	8001bf6 <TIM_Base_SetConfig+0x2e>
 8001bee:	f502 4278 	add.w	r2, r2, #63488	; 0xf800
 8001bf2:	4290      	cmp	r0, r2
 8001bf4:	d119      	bne.n	8001c2a <TIM_Base_SetConfig+0x62>
 8001bf6:	684a      	ldr	r2, [r1, #4]
 8001bf8:	f023 0370 	bic.w	r3, r3, #112	; 0x70
 8001bfc:	4313      	orrs	r3, r2
 8001bfe:	4a23      	ldr	r2, [pc, #140]	; (8001c8c <TIM_Base_SetConfig+0xc4>)
 8001c00:	4290      	cmp	r0, r2
 8001c02:	d029      	beq.n	8001c58 <TIM_Base_SetConfig+0x90>
 8001c04:	f1b0 4f80 	cmp.w	r0, #1073741824	; 0x40000000
 8001c08:	d026      	beq.n	8001c58 <TIM_Base_SetConfig+0x90>
 8001c0a:	f5a2 427c 	sub.w	r2, r2, #64512	; 0xfc00
 8001c0e:	4290      	cmp	r0, r2
 8001c10:	d022      	beq.n	8001c58 <TIM_Base_SetConfig+0x90>
 8001c12:	f502 6280 	add.w	r2, r2, #1024	; 0x400
 8001c16:	4290      	cmp	r0, r2
 8001c18:	d01e      	beq.n	8001c58 <TIM_Base_SetConfig+0x90>
 8001c1a:	f502 6280 	add.w	r2, r2, #1024	; 0x400
 8001c1e:	4290      	cmp	r0, r2
 8001c20:	d01a      	beq.n	8001c58 <TIM_Base_SetConfig+0x90>
 8001c22:	f502 4278 	add.w	r2, r2, #63488	; 0xf800
 8001c26:	4290      	cmp	r0, r2
 8001c28:	d016      	beq.n	8001c58 <TIM_Base_SetConfig+0x90>
 8001c2a:	4a19      	ldr	r2, [pc, #100]	; (8001c90 <TIM_Base_SetConfig+0xc8>)
 8001c2c:	4290      	cmp	r0, r2
 8001c2e:	d013      	beq.n	8001c58 <TIM_Base_SetConfig+0x90>
 8001c30:	f502 6280 	add.w	r2, r2, #1024	; 0x400
 8001c34:	4290      	cmp	r0, r2
 8001c36:	d00f      	beq.n	8001c58 <TIM_Base_SetConfig+0x90>
 8001c38:	f502 6280 	add.w	r2, r2, #1024	; 0x400
 8001c3c:	4290      	cmp	r0, r2
 8001c3e:	d00b      	beq.n	8001c58 <TIM_Base_SetConfig+0x90>
 8001c40:	f5a2 3298 	sub.w	r2, r2, #77824	; 0x13000
 8001c44:	4290      	cmp	r0, r2
 8001c46:	d007      	beq.n	8001c58 <TIM_Base_SetConfig+0x90>
 8001c48:	f502 6280 	add.w	r2, r2, #1024	; 0x400
 8001c4c:	4290      	cmp	r0, r2
 8001c4e:	d003      	beq.n	8001c58 <TIM_Base_SetConfig+0x90>
 8001c50:	f502 6280 	add.w	r2, r2, #1024	; 0x400
 8001c54:	4290      	cmp	r0, r2
 8001c56:	d103      	bne.n	8001c60 <TIM_Base_SetConfig+0x98>
 8001c58:	68ca      	ldr	r2, [r1, #12]
 8001c5a:	f423 7340 	bic.w	r3, r3, #768	; 0x300
 8001c5e:	4313      	orrs	r3, r2
 8001c60:	694a      	ldr	r2, [r1, #20]
 8001c62:	f023 0380 	bic.w	r3, r3, #128	; 0x80
 8001c66:	4313      	orrs	r3, r2
 8001c68:	6003      	str	r3, [r0, #0]
 8001c6a:	688b      	ldr	r3, [r1, #8]
 8001c6c:	62c3      	str	r3, [r0, #44]	; 0x2c
 8001c6e:	680b      	ldr	r3, [r1, #0]
 8001c70:	6283      	str	r3, [r0, #40]	; 0x28
 8001c72:	4b06      	ldr	r3, [pc, #24]	; (8001c8c <TIM_Base_SetConfig+0xc4>)
 8001c74:	4298      	cmp	r0, r3
 8001c76:	d003      	beq.n	8001c80 <TIM_Base_SetConfig+0xb8>
 8001c78:	f503 6380 	add.w	r3, r3, #1024	; 0x400
 8001c7c:	4298      	cmp	r0, r3
 8001c7e:	d101      	bne.n	8001c84 <TIM_Base_SetConfig+0xbc>
 8001c80:	690b      	ldr	r3, [r1, #16]
 8001c82:	6303      	str	r3, [r0, #48]	; 0x30
 8001c84:	2301      	movs	r3, #1
 8001c86:	6143      	str	r3, [r0, #20]
 8001c88:	4770      	bx	lr
 8001c8a:	bf00      	nop
 8001c8c:	40010000 	.word	0x40010000
 8001c90:	40014000 	.word	0x40014000

08001c94 <HAL_TIM_Base_Init>:
 8001c94:	b510      	push	{r4, lr}
 8001c96:	4604      	mov	r4, r0
 8001c98:	b1a0      	cbz	r0, 8001cc4 <HAL_TIM_Base_Init+0x30>
 8001c9a:	f890 303d 	ldrb.w	r3, [r0, #61]	; 0x3d
 8001c9e:	f003 02ff 	and.w	r2, r3, #255	; 0xff
 8001ca2:	b91b      	cbnz	r3, 8001cac <HAL_TIM_Base_Init+0x18>
 8001ca4:	f880 203c 	strb.w	r2, [r0, #60]	; 0x3c
 8001ca8:	f7ff fed6 	bl	8001a58 <HAL_TIM_Base_MspInit>
 8001cac:	2302      	movs	r3, #2
 8001cae:	f884 303d 	strb.w	r3, [r4, #61]	; 0x3d
 8001cb2:	6820      	ldr	r0, [r4, #0]
 8001cb4:	1d21      	adds	r1, r4, #4
 8001cb6:	f7ff ff87 	bl	8001bc8 <TIM_Base_SetConfig>
 8001cba:	2301      	movs	r3, #1
 8001cbc:	f884 303d 	strb.w	r3, [r4, #61]	; 0x3d
 8001cc0:	2000      	movs	r0, #0
 8001cc2:	bd10      	pop	{r4, pc}
 8001cc4:	2001      	movs	r0, #1
 8001cc6:	e7fc      	b.n	8001cc2 <HAL_TIM_Base_Init+0x2e>

08001cc8 <HAL_TIM_PWM_Init>:
 8001cc8:	b510      	push	{r4, lr}
 8001cca:	4604      	mov	r4, r0
 8001ccc:	b1a0      	cbz	r0, 8001cf8 <HAL_TIM_PWM_Init+0x30>
 8001cce:	f890 303d 	ldrb.w	r3, [r0, #61]	; 0x3d
 8001cd2:	f003 02ff 	and.w	r2, r3, #255	; 0xff
 8001cd6:	b91b      	cbnz	r3, 8001ce0 <HAL_TIM_PWM_Init+0x18>
 8001cd8:	f880 203c 	strb.w	r2, [r0, #60]	; 0x3c
 8001cdc:	f7fe fe9c 	bl	8000a18 <HAL_TIM_PWM_MspInit>
 8001ce0:	2302      	movs	r3, #2
 8001ce2:	f884 303d 	strb.w	r3, [r4, #61]	; 0x3d
 8001ce6:	6820      	ldr	r0, [r4, #0]
 8001ce8:	1d21      	adds	r1, r4, #4
 8001cea:	f7ff ff6d 	bl	8001bc8 <TIM_Base_SetConfig>
 8001cee:	2301      	movs	r3, #1
 8001cf0:	f884 303d 	strb.w	r3, [r4, #61]	; 0x3d
 8001cf4:	2000      	movs	r0, #0
 8001cf6:	bd10      	pop	{r4, pc}
 8001cf8:	2001      	movs	r0, #1
 8001cfa:	e7fc      	b.n	8001cf6 <HAL_TIM_PWM_Init+0x2e>

08001cfc <TIM_OC2_SetConfig>:
 8001cfc:	6a03      	ldr	r3, [r0, #32]
 8001cfe:	f023 0310 	bic.w	r3, r3, #16
 8001d02:	6203      	str	r3, [r0, #32]
 8001d04:	6a03      	ldr	r3, [r0, #32]
 8001d06:	b570      	push	{r4, r5, r6, lr}
 8001d08:	6844      	ldr	r4, [r0, #4]
 8001d0a:	6982      	ldr	r2, [r0, #24]
 8001d0c:	680d      	ldr	r5, [r1, #0]
 8001d0e:	f422 42e6 	bic.w	r2, r2, #29440	; 0x7300
 8001d12:	ea42 2205 	orr.w	r2, r2, r5, lsl #8
 8001d16:	688d      	ldr	r5, [r1, #8]
 8001d18:	f023 0320 	bic.w	r3, r3, #32
 8001d1c:	ea43 1305 	orr.w	r3, r3, r5, lsl #4
 8001d20:	4d10      	ldr	r5, [pc, #64]	; (8001d64 <TIM_OC2_SetConfig+0x68>)
 8001d22:	42a8      	cmp	r0, r5
 8001d24:	d003      	beq.n	8001d2e <TIM_OC2_SetConfig+0x32>
 8001d26:	f505 6580 	add.w	r5, r5, #1024	; 0x400
 8001d2a:	42a8      	cmp	r0, r5
 8001d2c:	d114      	bne.n	8001d58 <TIM_OC2_SetConfig+0x5c>
 8001d2e:	68cd      	ldr	r5, [r1, #12]
 8001d30:	f023 0380 	bic.w	r3, r3, #128	; 0x80
 8001d34:	ea43 1305 	orr.w	r3, r3, r5, lsl #4
 8001d38:	4d0a      	ldr	r5, [pc, #40]	; (8001d64 <TIM_OC2_SetConfig+0x68>)
 8001d3a:	42a8      	cmp	r0, r5
 8001d3c:	f023 0340 	bic.w	r3, r3, #64	; 0x40
 8001d40:	d003      	beq.n	8001d4a <TIM_OC2_SetConfig+0x4e>
 8001d42:	f505 6580 	add.w	r5, r5, #1024	; 0x400
 8001d46:	42a8      	cmp	r0, r5
 8001d48:	d106      	bne.n	8001d58 <TIM_OC2_SetConfig+0x5c>
 8001d4a:	e9d1 5605 	ldrd	r5, r6, [r1, #20]
 8001d4e:	f424 6440 	bic.w	r4, r4, #3072	; 0xc00
 8001d52:	4335      	orrs	r5, r6
 8001d54:	ea44 0485 	orr.w	r4, r4, r5, lsl #2
 8001d58:	6044      	str	r4, [r0, #4]
 8001d5a:	6182      	str	r2, [r0, #24]
 8001d5c:	684a      	ldr	r2, [r1, #4]
 8001d5e:	6382      	str	r2, [r0, #56]	; 0x38
 8001d60:	6203      	str	r3, [r0, #32]
 8001d62:	bd70      	pop	{r4, r5, r6, pc}
 8001d64:	40010000 	.word	0x40010000

08001d68 <HAL_TIM_PWM_ConfigChannel>:
 8001d68:	b538      	push	{r3, r4, r5, lr}
 8001d6a:	f890 303c 	ldrb.w	r3, [r0, #60]	; 0x3c
 8001d6e:	2b01      	cmp	r3, #1
 8001d70:	4604      	mov	r4, r0
 8001d72:	f04f 0002 	mov.w	r0, #2
 8001d76:	d025      	beq.n	8001dc4 <HAL_TIM_PWM_ConfigChannel+0x5c>
 8001d78:	2301      	movs	r3, #1
 8001d7a:	f884 303c 	strb.w	r3, [r4, #60]	; 0x3c
 8001d7e:	f884 003d 	strb.w	r0, [r4, #61]	; 0x3d
 8001d82:	2a0c      	cmp	r2, #12
 8001d84:	d818      	bhi.n	8001db8 <HAL_TIM_PWM_ConfigChannel+0x50>
 8001d86:	e8df f002 	tbb	[pc, r2]
 8001d8a:	1707      	.short	0x1707
 8001d8c:	171e1717 	.word	0x171e1717
 8001d90:	172f1717 	.word	0x172f1717
 8001d94:	1717      	.short	0x1717
 8001d96:	40          	.byte	0x40
 8001d97:	00          	.byte	0x00
 8001d98:	6820      	ldr	r0, [r4, #0]
 8001d9a:	f7ff fdcf 	bl	800193c <TIM_OC1_SetConfig>
 8001d9e:	6823      	ldr	r3, [r4, #0]
 8001da0:	6909      	ldr	r1, [r1, #16]
 8001da2:	699a      	ldr	r2, [r3, #24]
 8001da4:	f042 0208 	orr.w	r2, r2, #8
 8001da8:	619a      	str	r2, [r3, #24]
 8001daa:	699a      	ldr	r2, [r3, #24]
 8001dac:	f022 0204 	bic.w	r2, r2, #4
 8001db0:	619a      	str	r2, [r3, #24]
 8001db2:	699a      	ldr	r2, [r3, #24]
 8001db4:	430a      	orrs	r2, r1
 8001db6:	619a      	str	r2, [r3, #24]
 8001db8:	2301      	movs	r3, #1
 8001dba:	2000      	movs	r0, #0
 8001dbc:	f884 303d 	strb.w	r3, [r4, #61]	; 0x3d
 8001dc0:	f884 003c 	strb.w	r0, [r4, #60]	; 0x3c
 8001dc4:	bd38      	pop	{r3, r4, r5, pc}
 8001dc6:	6820      	ldr	r0, [r4, #0]
 8001dc8:	f7ff ff98 	bl	8001cfc <TIM_OC2_SetConfig>
 8001dcc:	6823      	ldr	r3, [r4, #0]
 8001dce:	6909      	ldr	r1, [r1, #16]
 8001dd0:	699a      	ldr	r2, [r3, #24]
 8001dd2:	f442 6200 	orr.w	r2, r2, #2048	; 0x800
 8001dd6:	619a      	str	r2, [r3, #24]
 8001dd8:	699a      	ldr	r2, [r3, #24]
 8001dda:	f422 6280 	bic.w	r2, r2, #1024	; 0x400
 8001dde:	619a      	str	r2, [r3, #24]
 8001de0:	699a      	ldr	r2, [r3, #24]
 8001de2:	ea42 2201 	orr.w	r2, r2, r1, lsl #8
 8001de6:	e7e6      	b.n	8001db6 <HAL_TIM_PWM_ConfigChannel+0x4e>
 8001de8:	6820      	ldr	r0, [r4, #0]
 8001dea:	f7ff fdd9 	bl	80019a0 <TIM_OC3_SetConfig>
 8001dee:	6823      	ldr	r3, [r4, #0]
 8001df0:	6909      	ldr	r1, [r1, #16]
 8001df2:	69da      	ldr	r2, [r3, #28]
 8001df4:	f042 0208 	orr.w	r2, r2, #8
 8001df8:	61da      	str	r2, [r3, #28]
 8001dfa:	69da      	ldr	r2, [r3, #28]
 8001dfc:	f022 0204 	bic.w	r2, r2, #4
 8001e00:	61da      	str	r2, [r3, #28]
 8001e02:	69da      	ldr	r2, [r3, #28]
 8001e04:	430a      	orrs	r2, r1
 8001e06:	61da      	str	r2, [r3, #28]
 8001e08:	e7d6      	b.n	8001db8 <HAL_TIM_PWM_ConfigChannel+0x50>
 8001e0a:	6820      	ldr	r0, [r4, #0]
 8001e0c:	f7ff fdfe 	bl	8001a0c <TIM_OC4_SetConfig>
 8001e10:	6823      	ldr	r3, [r4, #0]
 8001e12:	6909      	ldr	r1, [r1, #16]
 8001e14:	69da      	ldr	r2, [r3, #28]
 8001e16:	f442 6200 	orr.w	r2, r2, #2048	; 0x800
 8001e1a:	61da      	str	r2, [r3, #28]
 8001e1c:	69da      	ldr	r2, [r3, #28]
 8001e1e:	f422 6280 	bic.w	r2, r2, #1024	; 0x400
 8001e22:	61da      	str	r2, [r3, #28]
 8001e24:	69da      	ldr	r2, [r3, #28]
 8001e26:	ea42 2201 	orr.w	r2, r2, r1, lsl #8
 8001e2a:	e7ec      	b.n	8001e06 <HAL_TIM_PWM_ConfigChannel+0x9e>

08001e2c <TIM_CCxChannelCmd>:
 8001e2c:	6a03      	ldr	r3, [r0, #32]
 8001e2e:	f001 011f 	and.w	r1, r1, #31
 8001e32:	b510      	push	{r4, lr}
 8001e34:	2401      	movs	r4, #1
 8001e36:	408c      	lsls	r4, r1
 8001e38:	ea23 0304 	bic.w	r3, r3, r4
 8001e3c:	6203      	str	r3, [r0, #32]
 8001e3e:	6a03      	ldr	r3, [r0, #32]
 8001e40:	408a      	lsls	r2, r1
 8001e42:	431a      	orrs	r2, r3
 8001e44:	6202      	str	r2, [r0, #32]
 8001e46:	bd10      	pop	{r4, pc}

08001e48 <HAL_TIM_OC_Start>:
 8001e48:	b510      	push	{r4, lr}
 8001e4a:	4604      	mov	r4, r0
 8001e4c:	2201      	movs	r2, #1
 8001e4e:	6800      	ldr	r0, [r0, #0]
 8001e50:	f7ff ffec 	bl	8001e2c <TIM_CCxChannelCmd>
 8001e54:	6823      	ldr	r3, [r4, #0]
 8001e56:	4a0b      	ldr	r2, [pc, #44]	; (8001e84 <HAL_TIM_OC_Start+0x3c>)
 8001e58:	4293      	cmp	r3, r2
 8001e5a:	d003      	beq.n	8001e64 <HAL_TIM_OC_Start+0x1c>
 8001e5c:	f502 6280 	add.w	r2, r2, #1024	; 0x400
 8001e60:	4293      	cmp	r3, r2
 8001e62:	d103      	bne.n	8001e6c <HAL_TIM_OC_Start+0x24>
 8001e64:	6c5a      	ldr	r2, [r3, #68]	; 0x44
 8001e66:	f442 4200 	orr.w	r2, r2, #32768	; 0x8000
 8001e6a:	645a      	str	r2, [r3, #68]	; 0x44
 8001e6c:	689a      	ldr	r2, [r3, #8]
 8001e6e:	f002 0207 	and.w	r2, r2, #7
 8001e72:	2a06      	cmp	r2, #6
 8001e74:	bf1e      	ittt	ne
 8001e76:	681a      	ldrne	r2, [r3, #0]
 8001e78:	f042 0201 	orrne.w	r2, r2, #1
 8001e7c:	601a      	strne	r2, [r3, #0]
 8001e7e:	2000      	movs	r0, #0
 8001e80:	bd10      	pop	{r4, pc}
 8001e82:	bf00      	nop
 8001e84:	40010000 	.word	0x40010000

08001e88 <HAL_TIM_PWM_Start>:
 8001e88:	f7ff bfde 	b.w	8001e48 <HAL_TIM_OC_Start>

08001e8c <HAL_TIMEx_MasterConfigSynchronization>:
 8001e8c:	f890 303c 	ldrb.w	r3, [r0, #60]	; 0x3c
 8001e90:	2b01      	cmp	r3, #1
 8001e92:	b530      	push	{r4, r5, lr}
 8001e94:	f04f 0302 	mov.w	r3, #2
 8001e98:	d035      	beq.n	8001f06 <HAL_TIMEx_MasterConfigSynchronization+0x7a>
 8001e9a:	f880 303d 	strb.w	r3, [r0, #61]	; 0x3d
 8001e9e:	6803      	ldr	r3, [r0, #0]
 8001ea0:	680d      	ldr	r5, [r1, #0]
 8001ea2:	685c      	ldr	r4, [r3, #4]
 8001ea4:	f024 0470 	bic.w	r4, r4, #112	; 0x70
 8001ea8:	2201      	movs	r2, #1
 8001eaa:	432c      	orrs	r4, r5
 8001eac:	f880 203c 	strb.w	r2, [r0, #60]	; 0x3c
 8001eb0:	689a      	ldr	r2, [r3, #8]
 8001eb2:	605c      	str	r4, [r3, #4]
 8001eb4:	4c15      	ldr	r4, [pc, #84]	; (8001f0c <HAL_TIMEx_MasterConfigSynchronization+0x80>)
 8001eb6:	42a3      	cmp	r3, r4
 8001eb8:	d01a      	beq.n	8001ef0 <HAL_TIMEx_MasterConfigSynchronization+0x64>
 8001eba:	f1b3 4f80 	cmp.w	r3, #1073741824	; 0x40000000
 8001ebe:	d017      	beq.n	8001ef0 <HAL_TIMEx_MasterConfigSynchronization+0x64>
 8001ec0:	f5a4 447c 	sub.w	r4, r4, #64512	; 0xfc00
 8001ec4:	42a3      	cmp	r3, r4
 8001ec6:	d013      	beq.n	8001ef0 <HAL_TIMEx_MasterConfigSynchronization+0x64>
 8001ec8:	f504 6480 	add.w	r4, r4, #1024	; 0x400
 8001ecc:	42a3      	cmp	r3, r4
 8001ece:	d00f      	beq.n	8001ef0 <HAL_TIMEx_MasterConfigSynchronization+0x64>
 8001ed0:	f504 6480 	add.w	r4, r4, #1024	; 0x400
 8001ed4:	42a3      	cmp	r3, r4
 8001ed6:	d00b      	beq.n	8001ef0 <HAL_TIMEx_MasterConfigSynchronization+0x64>
 8001ed8:	f504 4478 	add.w	r4, r4, #63488	; 0xf800
 8001edc:	42a3      	cmp	r3, r4
 8001ede:	d007      	beq.n	8001ef0 <HAL_TIMEx_MasterConfigSynchronization+0x64>
 8001ee0:	f504 5470 	add.w	r4, r4, #15360	; 0x3c00
 8001ee4:	42a3      	cmp	r3, r4
 8001ee6:	d003      	beq.n	8001ef0 <HAL_TIMEx_MasterConfigSynchronization+0x64>
 8001ee8:	f5a4 3494 	sub.w	r4, r4, #75776	; 0x12800
 8001eec:	42a3      	cmp	r3, r4
 8001eee:	d104      	bne.n	8001efa <HAL_TIMEx_MasterConfigSynchronization+0x6e>
 8001ef0:	6849      	ldr	r1, [r1, #4]
 8001ef2:	f022 0280 	bic.w	r2, r2, #128	; 0x80
 8001ef6:	430a      	orrs	r2, r1
 8001ef8:	609a      	str	r2, [r3, #8]
 8001efa:	2301      	movs	r3, #1
 8001efc:	f880 303d 	strb.w	r3, [r0, #61]	; 0x3d
 8001f00:	2300      	movs	r3, #0
 8001f02:	f880 303c 	strb.w	r3, [r0, #60]	; 0x3c
 8001f06:	4618      	mov	r0, r3
 8001f08:	bd30      	pop	{r4, r5, pc}
 8001f0a:	bf00      	nop
 8001f0c:	40010000 	.word	0x40010000

08001f10 <HAL_TIMEx_CommutCallback>:
 8001f10:	4770      	bx	lr

08001f12 <HAL_TIMEx_BreakCallback>:
 8001f12:	4770      	bx	lr

08001f14 <UART_EndRxTransfer>:
 8001f14:	6803      	ldr	r3, [r0, #0]
 8001f16:	68da      	ldr	r2, [r3, #12]
 8001f18:	f422 7290 	bic.w	r2, r2, #288	; 0x120
 8001f1c:	60da      	str	r2, [r3, #12]
 8001f1e:	695a      	ldr	r2, [r3, #20]
 8001f20:	f022 0201 	bic.w	r2, r2, #1
 8001f24:	615a      	str	r2, [r3, #20]
 8001f26:	2320      	movs	r3, #32
 8001f28:	f880 303a 	strb.w	r3, [r0, #58]	; 0x3a
 8001f2c:	4770      	bx	lr
	...

08001f30 <UART_SetConfig>:
 8001f30:	6803      	ldr	r3, [r0, #0]
 8001f32:	68c1      	ldr	r1, [r0, #12]
 8001f34:	691a      	ldr	r2, [r3, #16]
 8001f36:	b570      	push	{r4, r5, r6, lr}
 8001f38:	f422 5240 	bic.w	r2, r2, #12288	; 0x3000
 8001f3c:	4604      	mov	r4, r0
 8001f3e:	430a      	orrs	r2, r1
 8001f40:	611a      	str	r2, [r3, #16]
 8001f42:	6925      	ldr	r5, [r4, #16]
 8001f44:	68a2      	ldr	r2, [r4, #8]
 8001f46:	68d9      	ldr	r1, [r3, #12]
 8001f48:	69c0      	ldr	r0, [r0, #28]
 8001f4a:	432a      	orrs	r2, r5
 8001f4c:	6965      	ldr	r5, [r4, #20]
 8001f4e:	f421 4116 	bic.w	r1, r1, #38400	; 0x9600
 8001f52:	432a      	orrs	r2, r5
 8001f54:	f021 010c 	bic.w	r1, r1, #12
 8001f58:	4302      	orrs	r2, r0
 8001f5a:	430a      	orrs	r2, r1
 8001f5c:	60da      	str	r2, [r3, #12]
 8001f5e:	695a      	ldr	r2, [r3, #20]
 8001f60:	69a1      	ldr	r1, [r4, #24]
 8001f62:	f422 7240 	bic.w	r2, r2, #768	; 0x300
 8001f66:	430a      	orrs	r2, r1
 8001f68:	f5b0 4f00 	cmp.w	r0, #32768	; 0x8000
 8001f6c:	615a      	str	r2, [r3, #20]
 8001f6e:	4a26      	ldr	r2, [pc, #152]	; (8002008 <UART_SetConfig+0xd8>)
 8001f70:	d129      	bne.n	8001fc6 <UART_SetConfig+0x96>
 8001f72:	4293      	cmp	r3, r2
 8001f74:	d003      	beq.n	8001f7e <UART_SetConfig+0x4e>
 8001f76:	f502 6280 	add.w	r2, r2, #1024	; 0x400
 8001f7a:	4293      	cmp	r3, r2
 8001f7c:	d120      	bne.n	8001fc0 <UART_SetConfig+0x90>
 8001f7e:	f7ff fcaf 	bl	80018e0 <HAL_RCC_GetPCLK2Freq>
 8001f82:	6862      	ldr	r2, [r4, #4]
 8001f84:	2600      	movs	r6, #0
 8001f86:	1892      	adds	r2, r2, r2
 8001f88:	f04f 0119 	mov.w	r1, #25
 8001f8c:	eb46 0306 	adc.w	r3, r6, r6
 8001f90:	fba0 0101 	umull	r0, r1, r0, r1
 8001f94:	f7fe f962 	bl	800025c <__aeabi_uldivmod>
 8001f98:	2164      	movs	r1, #100	; 0x64
 8001f9a:	fbb0 f5f1 	udiv	r5, r0, r1
 8001f9e:	fb01 0315 	mls	r3, r1, r5, r0
 8001fa2:	00db      	lsls	r3, r3, #3
 8001fa4:	3332      	adds	r3, #50	; 0x32
 8001fa6:	fbb3 f3f1 	udiv	r3, r3, r1
 8001faa:	f003 0207 	and.w	r2, r3, #7
 8001fae:	005b      	lsls	r3, r3, #1
 8001fb0:	6821      	ldr	r1, [r4, #0]
 8001fb2:	eb02 1205 	add.w	r2, r2, r5, lsl #4
 8001fb6:	f403 73f8 	and.w	r3, r3, #496	; 0x1f0
 8001fba:	4413      	add	r3, r2
 8001fbc:	608b      	str	r3, [r1, #8]
 8001fbe:	bd70      	pop	{r4, r5, r6, pc}
 8001fc0:	f7ff fc7e 	bl	80018c0 <HAL_RCC_GetPCLK1Freq>
 8001fc4:	e7dd      	b.n	8001f82 <UART_SetConfig+0x52>
 8001fc6:	4293      	cmp	r3, r2
 8001fc8:	d002      	beq.n	8001fd0 <UART_SetConfig+0xa0>
 8001fca:	4a10      	ldr	r2, [pc, #64]	; (800200c <UART_SetConfig+0xdc>)
 8001fcc:	4293      	cmp	r3, r2
 8001fce:	d117      	bne.n	8002000 <UART_SetConfig+0xd0>
 8001fd0:	f7ff fc86 	bl	80018e0 <HAL_RCC_GetPCLK2Freq>
 8001fd4:	6863      	ldr	r3, [r4, #4]
 8001fd6:	2119      	movs	r1, #25
 8001fd8:	009a      	lsls	r2, r3, #2
 8001fda:	fba0 0101 	umull	r0, r1, r0, r1
 8001fde:	0f9b      	lsrs	r3, r3, #30
 8001fe0:	f7fe f93c 	bl	800025c <__aeabi_uldivmod>
 8001fe4:	2264      	movs	r2, #100	; 0x64
 8001fe6:	fbb0 f1f2 	udiv	r1, r0, r2
 8001fea:	fb02 0311 	mls	r3, r2, r1, r0
 8001fee:	6824      	ldr	r4, [r4, #0]
 8001ff0:	011b      	lsls	r3, r3, #4
 8001ff2:	3332      	adds	r3, #50	; 0x32
 8001ff4:	fbb3 f3f2 	udiv	r3, r3, r2
 8001ff8:	eb03 1301 	add.w	r3, r3, r1, lsl #4
 8001ffc:	60a3      	str	r3, [r4, #8]
 8001ffe:	e7de      	b.n	8001fbe <UART_SetConfig+0x8e>
 8002000:	f7ff fc5e 	bl	80018c0 <HAL_RCC_GetPCLK1Freq>
 8002004:	e7e6      	b.n	8001fd4 <UART_SetConfig+0xa4>
 8002006:	bf00      	nop
 8002008:	40011000 	.word	0x40011000
 800200c:	40011400 	.word	0x40011400

08002010 <HAL_UART_Init>:
 8002010:	b510      	push	{r4, lr}
 8002012:	4604      	mov	r4, r0
 8002014:	b340      	cbz	r0, 8002068 <HAL_UART_Init+0x58>
 8002016:	f890 3039 	ldrb.w	r3, [r0, #57]	; 0x39
 800201a:	f003 02ff 	and.w	r2, r3, #255	; 0xff
 800201e:	b91b      	cbnz	r3, 8002028 <HAL_UART_Init+0x18>
 8002020:	f880 2038 	strb.w	r2, [r0, #56]	; 0x38
 8002024:	f7fe fd3a 	bl	8000a9c <HAL_UART_MspInit>
 8002028:	6822      	ldr	r2, [r4, #0]
 800202a:	2324      	movs	r3, #36	; 0x24
 800202c:	f884 3039 	strb.w	r3, [r4, #57]	; 0x39
 8002030:	68d3      	ldr	r3, [r2, #12]
 8002032:	f423 5300 	bic.w	r3, r3, #8192	; 0x2000
 8002036:	60d3      	str	r3, [r2, #12]
 8002038:	4620      	mov	r0, r4
 800203a:	f7ff ff79 	bl	8001f30 <UART_SetConfig>
 800203e:	6823      	ldr	r3, [r4, #0]
 8002040:	691a      	ldr	r2, [r3, #16]
 8002042:	f422 4290 	bic.w	r2, r2, #18432	; 0x4800
 8002046:	611a      	str	r2, [r3, #16]
 8002048:	695a      	ldr	r2, [r3, #20]
 800204a:	f022 022a 	bic.w	r2, r2, #42	; 0x2a
 800204e:	615a      	str	r2, [r3, #20]
 8002050:	68da      	ldr	r2, [r3, #12]
 8002052:	f442 5200 	orr.w	r2, r2, #8192	; 0x2000
 8002056:	60da      	str	r2, [r3, #12]
 8002058:	2000      	movs	r0, #0
 800205a:	2320      	movs	r3, #32
 800205c:	63e0      	str	r0, [r4, #60]	; 0x3c
 800205e:	f884 3039 	strb.w	r3, [r4, #57]	; 0x39
 8002062:	f884 303a 	strb.w	r3, [r4, #58]	; 0x3a
 8002066:	bd10      	pop	{r4, pc}
 8002068:	2001      	movs	r0, #1
 800206a:	e7fc      	b.n	8002066 <HAL_UART_Init+0x56>

0800206c <HAL_UART_Receive_DMA>:
 800206c:	4613      	mov	r3, r2
 800206e:	f890 203a 	ldrb.w	r2, [r0, #58]	; 0x3a
 8002072:	2a20      	cmp	r2, #32
 8002074:	b573      	push	{r0, r1, r4, r5, r6, lr}
 8002076:	4605      	mov	r5, r0
 8002078:	d138      	bne.n	80020ec <HAL_UART_Receive_DMA+0x80>
 800207a:	2900      	cmp	r1, #0
 800207c:	d034      	beq.n	80020e8 <HAL_UART_Receive_DMA+0x7c>
 800207e:	2b00      	cmp	r3, #0
 8002080:	d032      	beq.n	80020e8 <HAL_UART_Receive_DMA+0x7c>
 8002082:	f890 2038 	ldrb.w	r2, [r0, #56]	; 0x38
 8002086:	2a01      	cmp	r2, #1
 8002088:	d030      	beq.n	80020ec <HAL_UART_Receive_DMA+0x80>
 800208a:	2201      	movs	r2, #1
 800208c:	2400      	movs	r4, #0
 800208e:	f880 2038 	strb.w	r2, [r0, #56]	; 0x38
 8002092:	2222      	movs	r2, #34	; 0x22
 8002094:	63c4      	str	r4, [r0, #60]	; 0x3c
 8002096:	6281      	str	r1, [r0, #40]	; 0x28
 8002098:	8583      	strh	r3, [r0, #44]	; 0x2c
 800209a:	f880 203a 	strb.w	r2, [r0, #58]	; 0x3a
 800209e:	6b40      	ldr	r0, [r0, #52]	; 0x34
 80020a0:	4a13      	ldr	r2, [pc, #76]	; (80020f0 <HAL_UART_Receive_DMA+0x84>)
 80020a2:	63c2      	str	r2, [r0, #60]	; 0x3c
 80020a4:	4a13      	ldr	r2, [pc, #76]	; (80020f4 <HAL_UART_Receive_DMA+0x88>)
 80020a6:	6402      	str	r2, [r0, #64]	; 0x40
 80020a8:	682e      	ldr	r6, [r5, #0]
 80020aa:	4a13      	ldr	r2, [pc, #76]	; (80020f8 <HAL_UART_Receive_DMA+0x8c>)
 80020ac:	e9c0 2413 	strd	r2, r4, [r0, #76]	; 0x4c
 80020b0:	460a      	mov	r2, r1
 80020b2:	1d31      	adds	r1, r6, #4
 80020b4:	f7fe ffb8 	bl	8001028 <HAL_DMA_Start_IT>
 80020b8:	682b      	ldr	r3, [r5, #0]
 80020ba:	9401      	str	r4, [sp, #4]
 80020bc:	681a      	ldr	r2, [r3, #0]
 80020be:	9201      	str	r2, [sp, #4]
 80020c0:	685a      	ldr	r2, [r3, #4]
 80020c2:	9201      	str	r2, [sp, #4]
 80020c4:	9a01      	ldr	r2, [sp, #4]
 80020c6:	68da      	ldr	r2, [r3, #12]
 80020c8:	f885 4038 	strb.w	r4, [r5, #56]	; 0x38
 80020cc:	f442 7280 	orr.w	r2, r2, #256	; 0x100
 80020d0:	60da      	str	r2, [r3, #12]
 80020d2:	695a      	ldr	r2, [r3, #20]
 80020d4:	f042 0201 	orr.w	r2, r2, #1
 80020d8:	615a      	str	r2, [r3, #20]
 80020da:	695a      	ldr	r2, [r3, #20]
 80020dc:	f042 0240 	orr.w	r2, r2, #64	; 0x40
 80020e0:	615a      	str	r2, [r3, #20]
 80020e2:	4620      	mov	r0, r4
 80020e4:	b002      	add	sp, #8
 80020e6:	bd70      	pop	{r4, r5, r6, pc}
 80020e8:	2001      	movs	r0, #1
 80020ea:	e7fb      	b.n	80020e4 <HAL_UART_Receive_DMA+0x78>
 80020ec:	2002      	movs	r0, #2
 80020ee:	e7f9      	b.n	80020e4 <HAL_UART_Receive_DMA+0x78>
 80020f0:	080020ff 	.word	0x080020ff
 80020f4:	08002139 	.word	0x08002139
 80020f8:	08002145 	.word	0x08002145

080020fc <HAL_UART_RxCpltCallback>:
 80020fc:	4770      	bx	lr

080020fe <UART_DMAReceiveCplt>:
 80020fe:	b508      	push	{r3, lr}
 8002100:	6803      	ldr	r3, [r0, #0]
 8002102:	6b82      	ldr	r2, [r0, #56]	; 0x38
 8002104:	681b      	ldr	r3, [r3, #0]
 8002106:	f413 7380 	ands.w	r3, r3, #256	; 0x100
 800210a:	d110      	bne.n	800212e <UART_DMAReceiveCplt+0x30>
 800210c:	85d3      	strh	r3, [r2, #46]	; 0x2e
 800210e:	6813      	ldr	r3, [r2, #0]
 8002110:	68d9      	ldr	r1, [r3, #12]
 8002112:	f421 7180 	bic.w	r1, r1, #256	; 0x100
 8002116:	60d9      	str	r1, [r3, #12]
 8002118:	6959      	ldr	r1, [r3, #20]
 800211a:	f021 0101 	bic.w	r1, r1, #1
 800211e:	6159      	str	r1, [r3, #20]
 8002120:	6959      	ldr	r1, [r3, #20]
 8002122:	f021 0140 	bic.w	r1, r1, #64	; 0x40
 8002126:	6159      	str	r1, [r3, #20]
 8002128:	2320      	movs	r3, #32
 800212a:	f882 303a 	strb.w	r3, [r2, #58]	; 0x3a
 800212e:	4610      	mov	r0, r2
 8002130:	f7ff ffe4 	bl	80020fc <HAL_UART_RxCpltCallback>
 8002134:	bd08      	pop	{r3, pc}

08002136 <HAL_UART_RxHalfCpltCallback>:
 8002136:	4770      	bx	lr

08002138 <UART_DMARxHalfCplt>:
 8002138:	b508      	push	{r3, lr}
 800213a:	6b80      	ldr	r0, [r0, #56]	; 0x38
 800213c:	f7ff fffb 	bl	8002136 <HAL_UART_RxHalfCpltCallback>
 8002140:	bd08      	pop	{r3, pc}

08002142 <HAL_UART_ErrorCallback>:
 8002142:	4770      	bx	lr

08002144 <UART_DMAError>:
 8002144:	6b81      	ldr	r1, [r0, #56]	; 0x38
 8002146:	b508      	push	{r3, lr}
 8002148:	680b      	ldr	r3, [r1, #0]
 800214a:	695a      	ldr	r2, [r3, #20]
 800214c:	f891 0039 	ldrb.w	r0, [r1, #57]	; 0x39
 8002150:	2821      	cmp	r0, #33	; 0x21
 8002152:	d10a      	bne.n	800216a <UART_DMAError+0x26>
 8002154:	0612      	lsls	r2, r2, #24
 8002156:	d508      	bpl.n	800216a <UART_DMAError+0x26>
 8002158:	2200      	movs	r2, #0
 800215a:	84ca      	strh	r2, [r1, #38]	; 0x26
 800215c:	68da      	ldr	r2, [r3, #12]
 800215e:	f022 02c0 	bic.w	r2, r2, #192	; 0xc0
 8002162:	60da      	str	r2, [r3, #12]
 8002164:	2220      	movs	r2, #32
 8002166:	f881 2039 	strb.w	r2, [r1, #57]	; 0x39
 800216a:	695b      	ldr	r3, [r3, #20]
 800216c:	f891 203a 	ldrb.w	r2, [r1, #58]	; 0x3a
 8002170:	2a22      	cmp	r2, #34	; 0x22
 8002172:	d106      	bne.n	8002182 <UART_DMAError+0x3e>
 8002174:	065b      	lsls	r3, r3, #25
 8002176:	d504      	bpl.n	8002182 <UART_DMAError+0x3e>
 8002178:	2300      	movs	r3, #0
 800217a:	85cb      	strh	r3, [r1, #46]	; 0x2e
 800217c:	4608      	mov	r0, r1
 800217e:	f7ff fec9 	bl	8001f14 <UART_EndRxTransfer>
 8002182:	6bcb      	ldr	r3, [r1, #60]	; 0x3c
 8002184:	f043 0310 	orr.w	r3, r3, #16
 8002188:	63cb      	str	r3, [r1, #60]	; 0x3c
 800218a:	4608      	mov	r0, r1
 800218c:	f7ff ffd9 	bl	8002142 <HAL_UART_ErrorCallback>
 8002190:	bd08      	pop	{r3, pc}
	...

08002194 <osKernelInitialize>:
 8002194:	f3ef 8305 	mrs	r3, IPSR
 8002198:	b113      	cbz	r3, 80021a0 <osKernelInitialize+0xc>
 800219a:	f06f 0005 	mvn.w	r0, #5
 800219e:	4770      	bx	lr
 80021a0:	f3ef 8210 	mrs	r2, PRIMASK
 80021a4:	4b07      	ldr	r3, [pc, #28]	; (80021c4 <osKernelInitialize+0x30>)
 80021a6:	b912      	cbnz	r2, 80021ae <osKernelInitialize+0x1a>
 80021a8:	f3ef 8211 	mrs	r2, BASEPRI
 80021ac:	b112      	cbz	r2, 80021b4 <osKernelInitialize+0x20>
 80021ae:	681a      	ldr	r2, [r3, #0]
 80021b0:	2a02      	cmp	r2, #2
 80021b2:	d0f2      	beq.n	800219a <osKernelInitialize+0x6>
 80021b4:	6818      	ldr	r0, [r3, #0]
 80021b6:	b910      	cbnz	r0, 80021be <osKernelInitialize+0x2a>
 80021b8:	2201      	movs	r2, #1
 80021ba:	601a      	str	r2, [r3, #0]
 80021bc:	4770      	bx	lr
 80021be:	f04f 30ff 	mov.w	r0, #4294967295
 80021c2:	4770      	bx	lr
 80021c4:	20000290 	.word	0x20000290

080021c8 <osKernelStart>:
 80021c8:	b508      	push	{r3, lr}
 80021ca:	f3ef 8305 	mrs	r3, IPSR
 80021ce:	b113      	cbz	r3, 80021d6 <osKernelStart+0xe>
 80021d0:	f06f 0005 	mvn.w	r0, #5
 80021d4:	bd08      	pop	{r3, pc}
 80021d6:	f3ef 8210 	mrs	r2, PRIMASK
 80021da:	4b0a      	ldr	r3, [pc, #40]	; (8002204 <osKernelStart+0x3c>)
 80021dc:	b912      	cbnz	r2, 80021e4 <osKernelStart+0x1c>
 80021de:	f3ef 8211 	mrs	r2, BASEPRI
 80021e2:	b112      	cbz	r2, 80021ea <osKernelStart+0x22>
 80021e4:	681a      	ldr	r2, [r3, #0]
 80021e6:	2a02      	cmp	r2, #2
 80021e8:	d0f2      	beq.n	80021d0 <osKernelStart+0x8>
 80021ea:	681a      	ldr	r2, [r3, #0]
 80021ec:	2a01      	cmp	r2, #1
 80021ee:	d105      	bne.n	80021fc <osKernelStart+0x34>
 80021f0:	2202      	movs	r2, #2
 80021f2:	601a      	str	r2, [r3, #0]
 80021f4:	f001 f938 	bl	8003468 <vTaskStartScheduler>
 80021f8:	2000      	movs	r0, #0
 80021fa:	e7eb      	b.n	80021d4 <osKernelStart+0xc>
 80021fc:	f04f 30ff 	mov.w	r0, #4294967295
 8002200:	e7e8      	b.n	80021d4 <osKernelStart+0xc>
 8002202:	bf00      	nop
 8002204:	20000290 	.word	0x20000290

08002208 <osThreadNew>:
 8002208:	b5f0      	push	{r4, r5, r6, r7, lr}
 800220a:	b087      	sub	sp, #28
 800220c:	4614      	mov	r4, r2
 800220e:	2200      	movs	r2, #0
 8002210:	460b      	mov	r3, r1
 8002212:	9205      	str	r2, [sp, #20]
 8002214:	f3ef 8205 	mrs	r2, IPSR
 8002218:	bb32      	cbnz	r2, 8002268 <osThreadNew+0x60>
 800221a:	f3ef 8210 	mrs	r2, PRIMASK
 800221e:	b912      	cbnz	r2, 8002226 <osThreadNew+0x1e>
 8002220:	f3ef 8211 	mrs	r2, BASEPRI
 8002224:	b11a      	cbz	r2, 800222e <osThreadNew+0x26>
 8002226:	4a22      	ldr	r2, [pc, #136]	; (80022b0 <osThreadNew+0xa8>)
 8002228:	6812      	ldr	r2, [r2, #0]
 800222a:	2a02      	cmp	r2, #2
 800222c:	d01c      	beq.n	8002268 <osThreadNew+0x60>
 800222e:	b1d8      	cbz	r0, 8002268 <osThreadNew+0x60>
 8002230:	2c00      	cmp	r4, #0
 8002232:	d036      	beq.n	80022a2 <osThreadNew+0x9a>
 8002234:	69a5      	ldr	r5, [r4, #24]
 8002236:	6821      	ldr	r1, [r4, #0]
 8002238:	2d00      	cmp	r5, #0
 800223a:	bf08      	it	eq
 800223c:	2518      	moveq	r5, #24
 800223e:	1e6a      	subs	r2, r5, #1
 8002240:	2a37      	cmp	r2, #55	; 0x37
 8002242:	462f      	mov	r7, r5
 8002244:	d831      	bhi.n	80022aa <osThreadNew+0xa2>
 8002246:	6862      	ldr	r2, [r4, #4]
 8002248:	07d2      	lsls	r2, r2, #31
 800224a:	d42e      	bmi.n	80022aa <osThreadNew+0xa2>
 800224c:	6966      	ldr	r6, [r4, #20]
 800224e:	b176      	cbz	r6, 800226e <osThreadNew+0x66>
 8002250:	08b2      	lsrs	r2, r6, #2
 8002252:	e9d4 ce02 	ldrd	ip, lr, [r4, #8]
 8002256:	f1bc 0f00 	cmp.w	ip, #0
 800225a:	d00a      	beq.n	8002272 <osThreadNew+0x6a>
 800225c:	f1be 0f5f 	cmp.w	lr, #95	; 0x5f
 8002260:	d902      	bls.n	8002268 <osThreadNew+0x60>
 8002262:	6924      	ldr	r4, [r4, #16]
 8002264:	b104      	cbz	r4, 8002268 <osThreadNew+0x60>
 8002266:	b9ae      	cbnz	r6, 8002294 <osThreadNew+0x8c>
 8002268:	9805      	ldr	r0, [sp, #20]
 800226a:	b007      	add	sp, #28
 800226c:	bdf0      	pop	{r4, r5, r6, r7, pc}
 800226e:	2280      	movs	r2, #128	; 0x80
 8002270:	e7ef      	b.n	8002252 <osThreadNew+0x4a>
 8002272:	f1be 0f00 	cmp.w	lr, #0
 8002276:	d1f7      	bne.n	8002268 <osThreadNew+0x60>
 8002278:	6924      	ldr	r4, [r4, #16]
 800227a:	2c00      	cmp	r4, #0
 800227c:	d1f4      	bne.n	8002268 <osThreadNew+0x60>
 800227e:	ac05      	add	r4, sp, #20
 8002280:	e9cd 7400 	strd	r7, r4, [sp]
 8002284:	b292      	uxth	r2, r2
 8002286:	f001 f8c1 	bl	800340c <xTaskCreate>
 800228a:	2801      	cmp	r0, #1
 800228c:	bf1c      	itt	ne
 800228e:	2300      	movne	r3, #0
 8002290:	9305      	strne	r3, [sp, #20]
 8002292:	e7e9      	b.n	8002268 <osThreadNew+0x60>
 8002294:	e9cd 4c01 	strd	r4, ip, [sp, #4]
 8002298:	9500      	str	r5, [sp, #0]
 800229a:	f001 f87f 	bl	800339c <xTaskCreateStatic>
 800229e:	9005      	str	r0, [sp, #20]
 80022a0:	e7e2      	b.n	8002268 <osThreadNew+0x60>
 80022a2:	2718      	movs	r7, #24
 80022a4:	2280      	movs	r2, #128	; 0x80
 80022a6:	4621      	mov	r1, r4
 80022a8:	e7e9      	b.n	800227e <osThreadNew+0x76>
 80022aa:	2000      	movs	r0, #0
 80022ac:	e7dd      	b.n	800226a <osThreadNew+0x62>
 80022ae:	bf00      	nop
 80022b0:	20000290 	.word	0x20000290

080022b4 <osDelay>:
 80022b4:	b508      	push	{r3, lr}
 80022b6:	f3ef 8305 	mrs	r3, IPSR
 80022ba:	b113      	cbz	r3, 80022c2 <osDelay+0xe>
 80022bc:	f06f 0005 	mvn.w	r0, #5
 80022c0:	bd08      	pop	{r3, pc}
 80022c2:	f3ef 8310 	mrs	r3, PRIMASK
 80022c6:	b913      	cbnz	r3, 80022ce <osDelay+0x1a>
 80022c8:	f3ef 8311 	mrs	r3, BASEPRI
 80022cc:	b11b      	cbz	r3, 80022d6 <osDelay+0x22>
 80022ce:	4b05      	ldr	r3, [pc, #20]	; (80022e4 <osDelay+0x30>)
 80022d0:	681b      	ldr	r3, [r3, #0]
 80022d2:	2b02      	cmp	r3, #2
 80022d4:	d0f2      	beq.n	80022bc <osDelay+0x8>
 80022d6:	2800      	cmp	r0, #0
 80022d8:	d0f2      	beq.n	80022c0 <osDelay+0xc>
 80022da:	f001 fa3d 	bl	8003758 <vTaskDelay>
 80022de:	2000      	movs	r0, #0
 80022e0:	e7ee      	b.n	80022c0 <osDelay+0xc>
 80022e2:	bf00      	nop
 80022e4:	20000290 	.word	0x20000290

080022e8 <osSemaphoreNew>:
 80022e8:	b573      	push	{r0, r1, r4, r5, r6, lr}
 80022ea:	460e      	mov	r6, r1
 80022ec:	4615      	mov	r5, r2
 80022ee:	f3ef 8305 	mrs	r3, IPSR
 80022f2:	b11b      	cbz	r3, 80022fc <osSemaphoreNew+0x14>
 80022f4:	2400      	movs	r4, #0
 80022f6:	4620      	mov	r0, r4
 80022f8:	b002      	add	sp, #8
 80022fa:	bd70      	pop	{r4, r5, r6, pc}
 80022fc:	f3ef 8310 	mrs	r3, PRIMASK
 8002300:	b913      	cbnz	r3, 8002308 <osSemaphoreNew+0x20>
 8002302:	f3ef 8311 	mrs	r3, BASEPRI
 8002306:	b11b      	cbz	r3, 8002310 <osSemaphoreNew+0x28>
 8002308:	4b21      	ldr	r3, [pc, #132]	; (8002390 <osSemaphoreNew+0xa8>)
 800230a:	681b      	ldr	r3, [r3, #0]
 800230c:	2b02      	cmp	r3, #2
 800230e:	d0f1      	beq.n	80022f4 <osSemaphoreNew+0xc>
 8002310:	2800      	cmp	r0, #0
 8002312:	d0ef      	beq.n	80022f4 <osSemaphoreNew+0xc>
 8002314:	42b0      	cmp	r0, r6
 8002316:	d3ed      	bcc.n	80022f4 <osSemaphoreNew+0xc>
 8002318:	b1ed      	cbz	r5, 8002356 <osSemaphoreNew+0x6e>
 800231a:	e9d5 3202 	ldrd	r3, r2, [r5, #8]
 800231e:	b1c3      	cbz	r3, 8002352 <osSemaphoreNew+0x6a>
 8002320:	2a4f      	cmp	r2, #79	; 0x4f
 8002322:	d9e7      	bls.n	80022f4 <osSemaphoreNew+0xc>
 8002324:	2801      	cmp	r0, #1
 8002326:	d126      	bne.n	8002376 <osSemaphoreNew+0x8e>
 8002328:	2203      	movs	r2, #3
 800232a:	9200      	str	r2, [sp, #0]
 800232c:	2200      	movs	r2, #0
 800232e:	4611      	mov	r1, r2
 8002330:	f000 f9ca 	bl	80026c8 <xQueueGenericCreateStatic>
 8002334:	4604      	mov	r4, r0
 8002336:	2800      	cmp	r0, #0
 8002338:	d0dc      	beq.n	80022f4 <osSemaphoreNew+0xc>
 800233a:	b1ce      	cbz	r6, 8002370 <osSemaphoreNew+0x88>
 800233c:	2300      	movs	r3, #0
 800233e:	461a      	mov	r2, r3
 8002340:	4619      	mov	r1, r3
 8002342:	f000 fa83 	bl	800284c <xQueueGenericSend>
 8002346:	2801      	cmp	r0, #1
 8002348:	d012      	beq.n	8002370 <osSemaphoreNew+0x88>
 800234a:	4620      	mov	r0, r4
 800234c:	f000 fe66 	bl	800301c <vQueueDelete>
 8002350:	e7d0      	b.n	80022f4 <osSemaphoreNew+0xc>
 8002352:	2a00      	cmp	r2, #0
 8002354:	d1ce      	bne.n	80022f4 <osSemaphoreNew+0xc>
 8002356:	2801      	cmp	r0, #1
 8002358:	d104      	bne.n	8002364 <osSemaphoreNew+0x7c>
 800235a:	2203      	movs	r2, #3
 800235c:	2100      	movs	r1, #0
 800235e:	f000 fa08 	bl	8002772 <xQueueGenericCreate>
 8002362:	e7e7      	b.n	8002334 <osSemaphoreNew+0x4c>
 8002364:	4631      	mov	r1, r6
 8002366:	f000 fa53 	bl	8002810 <xQueueCreateCountingSemaphore>
 800236a:	4604      	mov	r4, r0
 800236c:	2800      	cmp	r0, #0
 800236e:	d0c1      	beq.n	80022f4 <osSemaphoreNew+0xc>
 8002370:	b945      	cbnz	r5, 8002384 <osSemaphoreNew+0x9c>
 8002372:	4629      	mov	r1, r5
 8002374:	e007      	b.n	8002386 <osSemaphoreNew+0x9e>
 8002376:	461a      	mov	r2, r3
 8002378:	4631      	mov	r1, r6
 800237a:	f000 fa27 	bl	80027cc <xQueueCreateCountingSemaphoreStatic>
 800237e:	4604      	mov	r4, r0
 8002380:	2800      	cmp	r0, #0
 8002382:	d0b7      	beq.n	80022f4 <osSemaphoreNew+0xc>
 8002384:	6829      	ldr	r1, [r5, #0]
 8002386:	4620      	mov	r0, r4
 8002388:	f000 fe18 	bl	8002fbc <vQueueAddToRegistry>
 800238c:	e7b3      	b.n	80022f6 <osSemaphoreNew+0xe>
 800238e:	bf00      	nop
 8002390:	20000290 	.word	0x20000290

08002394 <osSemaphoreAcquire>:
 8002394:	b513      	push	{r0, r1, r4, lr}
 8002396:	460c      	mov	r4, r1
 8002398:	b918      	cbnz	r0, 80023a2 <osSemaphoreAcquire+0xe>
 800239a:	f06f 0003 	mvn.w	r0, #3
 800239e:	b002      	add	sp, #8
 80023a0:	bd10      	pop	{r4, pc}
 80023a2:	f3ef 8305 	mrs	r3, IPSR
 80023a6:	b16b      	cbz	r3, 80023c4 <osSemaphoreAcquire+0x30>
 80023a8:	2c00      	cmp	r4, #0
 80023aa:	d1f6      	bne.n	800239a <osSemaphoreAcquire+0x6>
 80023ac:	aa02      	add	r2, sp, #8
 80023ae:	4621      	mov	r1, r4
 80023b0:	f842 4d04 	str.w	r4, [r2, #-4]!
 80023b4:	f000 fd98 	bl	8002ee8 <xQueueReceiveFromISR>
 80023b8:	2801      	cmp	r0, #1
 80023ba:	d113      	bne.n	80023e4 <osSemaphoreAcquire+0x50>
 80023bc:	9b01      	ldr	r3, [sp, #4]
 80023be:	b9a3      	cbnz	r3, 80023ea <osSemaphoreAcquire+0x56>
 80023c0:	2000      	movs	r0, #0
 80023c2:	e7ec      	b.n	800239e <osSemaphoreAcquire+0xa>
 80023c4:	f3ef 8310 	mrs	r3, PRIMASK
 80023c8:	b913      	cbnz	r3, 80023d0 <osSemaphoreAcquire+0x3c>
 80023ca:	f3ef 8311 	mrs	r3, BASEPRI
 80023ce:	b11b      	cbz	r3, 80023d8 <osSemaphoreAcquire+0x44>
 80023d0:	4b0c      	ldr	r3, [pc, #48]	; (8002404 <osSemaphoreAcquire+0x70>)
 80023d2:	681b      	ldr	r3, [r3, #0]
 80023d4:	2b02      	cmp	r3, #2
 80023d6:	d0e7      	beq.n	80023a8 <osSemaphoreAcquire+0x14>
 80023d8:	4621      	mov	r1, r4
 80023da:	f000 fc95 	bl	8002d08 <xQueueSemaphoreTake>
 80023de:	2801      	cmp	r0, #1
 80023e0:	d0ee      	beq.n	80023c0 <osSemaphoreAcquire+0x2c>
 80023e2:	b95c      	cbnz	r4, 80023fc <osSemaphoreAcquire+0x68>
 80023e4:	f06f 0002 	mvn.w	r0, #2
 80023e8:	e7d9      	b.n	800239e <osSemaphoreAcquire+0xa>
 80023ea:	4b07      	ldr	r3, [pc, #28]	; (8002408 <osSemaphoreAcquire+0x74>)
 80023ec:	f04f 5280 	mov.w	r2, #268435456	; 0x10000000
 80023f0:	601a      	str	r2, [r3, #0]
 80023f2:	f3bf 8f4f 	dsb	sy
 80023f6:	f3bf 8f6f 	isb	sy
 80023fa:	e7e1      	b.n	80023c0 <osSemaphoreAcquire+0x2c>
 80023fc:	f06f 0001 	mvn.w	r0, #1
 8002400:	e7cd      	b.n	800239e <osSemaphoreAcquire+0xa>
 8002402:	bf00      	nop
 8002404:	20000290 	.word	0x20000290
 8002408:	e000ed04 	.word	0xe000ed04

0800240c <osSemaphoreRelease>:
 800240c:	b513      	push	{r0, r1, r4, lr}
 800240e:	b368      	cbz	r0, 800246c <osSemaphoreRelease+0x60>
 8002410:	f3ef 8305 	mrs	r3, IPSR
 8002414:	b153      	cbz	r3, 800242c <osSemaphoreRelease+0x20>
 8002416:	a902      	add	r1, sp, #8
 8002418:	2400      	movs	r4, #0
 800241a:	f841 4d04 	str.w	r4, [r1, #-4]!
 800241e:	f000 fb4c 	bl	8002aba <xQueueGiveFromISR>
 8002422:	2801      	cmp	r0, #1
 8002424:	d014      	beq.n	8002450 <osSemaphoreRelease+0x44>
 8002426:	f06f 0002 	mvn.w	r0, #2
 800242a:	e014      	b.n	8002456 <osSemaphoreRelease+0x4a>
 800242c:	f3ef 8310 	mrs	r3, PRIMASK
 8002430:	b913      	cbnz	r3, 8002438 <osSemaphoreRelease+0x2c>
 8002432:	f3ef 8311 	mrs	r3, BASEPRI
 8002436:	b11b      	cbz	r3, 8002440 <osSemaphoreRelease+0x34>
 8002438:	4b0e      	ldr	r3, [pc, #56]	; (8002474 <osSemaphoreRelease+0x68>)
 800243a:	681b      	ldr	r3, [r3, #0]
 800243c:	2b02      	cmp	r3, #2
 800243e:	d0ea      	beq.n	8002416 <osSemaphoreRelease+0xa>
 8002440:	2300      	movs	r3, #0
 8002442:	461a      	mov	r2, r3
 8002444:	4619      	mov	r1, r3
 8002446:	f000 fa01 	bl	800284c <xQueueGenericSend>
 800244a:	2801      	cmp	r0, #1
 800244c:	d002      	beq.n	8002454 <osSemaphoreRelease+0x48>
 800244e:	e7ea      	b.n	8002426 <osSemaphoreRelease+0x1a>
 8002450:	9b01      	ldr	r3, [sp, #4]
 8002452:	b913      	cbnz	r3, 800245a <osSemaphoreRelease+0x4e>
 8002454:	2000      	movs	r0, #0
 8002456:	b002      	add	sp, #8
 8002458:	bd10      	pop	{r4, pc}
 800245a:	4b07      	ldr	r3, [pc, #28]	; (8002478 <osSemaphoreRelease+0x6c>)
 800245c:	f04f 5280 	mov.w	r2, #268435456	; 0x10000000
 8002460:	601a      	str	r2, [r3, #0]
 8002462:	f3bf 8f4f 	dsb	sy
 8002466:	f3bf 8f6f 	isb	sy
 800246a:	e7f3      	b.n	8002454 <osSemaphoreRelease+0x48>
 800246c:	f06f 0003 	mvn.w	r0, #3
 8002470:	e7f1      	b.n	8002456 <osSemaphoreRelease+0x4a>
 8002472:	bf00      	nop
 8002474:	20000290 	.word	0x20000290
 8002478:	e000ed04 	.word	0xe000ed04

0800247c <vApplicationGetIdleTaskMemory>:
 800247c:	4b03      	ldr	r3, [pc, #12]	; (800248c <vApplicationGetIdleTaskMemory+0x10>)
 800247e:	6003      	str	r3, [r0, #0]
 8002480:	4b03      	ldr	r3, [pc, #12]	; (8002490 <vApplicationGetIdleTaskMemory+0x14>)
 8002482:	600b      	str	r3, [r1, #0]
 8002484:	2380      	movs	r3, #128	; 0x80
 8002486:	6013      	str	r3, [r2, #0]
 8002488:	4770      	bx	lr
 800248a:	bf00      	nop
 800248c:	20000230 	.word	0x20000230
 8002490:	20000030 	.word	0x20000030

08002494 <vApplicationGetTimerTaskMemory>:
 8002494:	4b03      	ldr	r3, [pc, #12]	; (80024a4 <vApplicationGetTimerTaskMemory+0x10>)
 8002496:	6003      	str	r3, [r0, #0]
 8002498:	4b03      	ldr	r3, [pc, #12]	; (80024a8 <vApplicationGetTimerTaskMemory+0x14>)
 800249a:	600b      	str	r3, [r1, #0]
 800249c:	f44f 7380 	mov.w	r3, #256	; 0x100
 80024a0:	6013      	str	r3, [r2, #0]
 80024a2:	4770      	bx	lr
 80024a4:	20000694 	.word	0x20000694
 80024a8:	20000294 	.word	0x20000294

080024ac <vListInitialise>:
 80024ac:	f100 0308 	add.w	r3, r0, #8
 80024b0:	f04f 32ff 	mov.w	r2, #4294967295
 80024b4:	6043      	str	r3, [r0, #4]
 80024b6:	e9c0 2302 	strd	r2, r3, [r0, #8]
 80024ba:	6103      	str	r3, [r0, #16]
 80024bc:	2300      	movs	r3, #0
 80024be:	6003      	str	r3, [r0, #0]
 80024c0:	4770      	bx	lr

080024c2 <vListInitialiseItem>:
 80024c2:	2300      	movs	r3, #0
 80024c4:	6103      	str	r3, [r0, #16]
 80024c6:	4770      	bx	lr

080024c8 <vListInsertEnd>:
 80024c8:	6843      	ldr	r3, [r0, #4]
 80024ca:	604b      	str	r3, [r1, #4]
 80024cc:	689a      	ldr	r2, [r3, #8]
 80024ce:	608a      	str	r2, [r1, #8]
 80024d0:	689a      	ldr	r2, [r3, #8]
 80024d2:	6051      	str	r1, [r2, #4]
 80024d4:	6099      	str	r1, [r3, #8]
 80024d6:	6803      	ldr	r3, [r0, #0]
 80024d8:	6108      	str	r0, [r1, #16]
 80024da:	3301      	adds	r3, #1
 80024dc:	6003      	str	r3, [r0, #0]
 80024de:	4770      	bx	lr

080024e0 <vListInsert>:
 80024e0:	680a      	ldr	r2, [r1, #0]
 80024e2:	1c53      	adds	r3, r2, #1
 80024e4:	b530      	push	{r4, r5, lr}
 80024e6:	d10a      	bne.n	80024fe <vListInsert+0x1e>
 80024e8:	6903      	ldr	r3, [r0, #16]
 80024ea:	685a      	ldr	r2, [r3, #4]
 80024ec:	604a      	str	r2, [r1, #4]
 80024ee:	6091      	str	r1, [r2, #8]
 80024f0:	608b      	str	r3, [r1, #8]
 80024f2:	6059      	str	r1, [r3, #4]
 80024f4:	6803      	ldr	r3, [r0, #0]
 80024f6:	6108      	str	r0, [r1, #16]
 80024f8:	3301      	adds	r3, #1
 80024fa:	6003      	str	r3, [r0, #0]
 80024fc:	bd30      	pop	{r4, r5, pc}
 80024fe:	f100 0308 	add.w	r3, r0, #8
 8002502:	685c      	ldr	r4, [r3, #4]
 8002504:	6825      	ldr	r5, [r4, #0]
 8002506:	4295      	cmp	r5, r2
 8002508:	d8ef      	bhi.n	80024ea <vListInsert+0xa>
 800250a:	4623      	mov	r3, r4
 800250c:	e7f9      	b.n	8002502 <vListInsert+0x22>

0800250e <uxListRemove>:
 800250e:	e9d0 1201 	ldrd	r1, r2, [r0, #4]
 8002512:	6903      	ldr	r3, [r0, #16]
 8002514:	608a      	str	r2, [r1, #8]
 8002516:	6882      	ldr	r2, [r0, #8]
 8002518:	6051      	str	r1, [r2, #4]
 800251a:	6859      	ldr	r1, [r3, #4]
 800251c:	4281      	cmp	r1, r0
 800251e:	bf08      	it	eq
 8002520:	605a      	streq	r2, [r3, #4]
 8002522:	2200      	movs	r2, #0
 8002524:	6102      	str	r2, [r0, #16]
 8002526:	681a      	ldr	r2, [r3, #0]
 8002528:	3a01      	subs	r2, #1
 800252a:	601a      	str	r2, [r3, #0]
 800252c:	6818      	ldr	r0, [r3, #0]
 800252e:	4770      	bx	lr

08002530 <prvIsQueueEmpty>:
 8002530:	b510      	push	{r4, lr}
 8002532:	4604      	mov	r4, r0
 8002534:	f001 fdee 	bl	8004114 <vPortEnterCritical>
 8002538:	6ba4      	ldr	r4, [r4, #56]	; 0x38
 800253a:	f001 fe0d 	bl	8004158 <vPortExitCritical>
 800253e:	fab4 f084 	clz	r0, r4
 8002542:	0940      	lsrs	r0, r0, #5
 8002544:	bd10      	pop	{r4, pc}

08002546 <prvCopyDataToQueue>:
 8002546:	b570      	push	{r4, r5, r6, lr}
 8002548:	4615      	mov	r5, r2
 800254a:	6c02      	ldr	r2, [r0, #64]	; 0x40
 800254c:	6b86      	ldr	r6, [r0, #56]	; 0x38
 800254e:	4604      	mov	r4, r0
 8002550:	b942      	cbnz	r2, 8002564 <prvCopyDataToQueue+0x1e>
 8002552:	6805      	ldr	r5, [r0, #0]
 8002554:	b99d      	cbnz	r5, 800257e <prvCopyDataToQueue+0x38>
 8002556:	6880      	ldr	r0, [r0, #8]
 8002558:	f001 fac8 	bl	8003aec <xTaskPriorityDisinherit>
 800255c:	60a5      	str	r5, [r4, #8]
 800255e:	3601      	adds	r6, #1
 8002560:	63a6      	str	r6, [r4, #56]	; 0x38
 8002562:	bd70      	pop	{r4, r5, r6, pc}
 8002564:	b96d      	cbnz	r5, 8002582 <prvCopyDataToQueue+0x3c>
 8002566:	6840      	ldr	r0, [r0, #4]
 8002568:	f002 fe99 	bl	800529e <memcpy>
 800256c:	6863      	ldr	r3, [r4, #4]
 800256e:	6c22      	ldr	r2, [r4, #64]	; 0x40
 8002570:	4413      	add	r3, r2
 8002572:	68a2      	ldr	r2, [r4, #8]
 8002574:	6063      	str	r3, [r4, #4]
 8002576:	4293      	cmp	r3, r2
 8002578:	d301      	bcc.n	800257e <prvCopyDataToQueue+0x38>
 800257a:	6823      	ldr	r3, [r4, #0]
 800257c:	6063      	str	r3, [r4, #4]
 800257e:	2000      	movs	r0, #0
 8002580:	e7ed      	b.n	800255e <prvCopyDataToQueue+0x18>
 8002582:	68c0      	ldr	r0, [r0, #12]
 8002584:	f002 fe8b 	bl	800529e <memcpy>
 8002588:	6c23      	ldr	r3, [r4, #64]	; 0x40
 800258a:	68e2      	ldr	r2, [r4, #12]
 800258c:	6821      	ldr	r1, [r4, #0]
 800258e:	425b      	negs	r3, r3
 8002590:	441a      	add	r2, r3
 8002592:	428a      	cmp	r2, r1
 8002594:	60e2      	str	r2, [r4, #12]
 8002596:	bf3e      	ittt	cc
 8002598:	68a2      	ldrcc	r2, [r4, #8]
 800259a:	189b      	addcc	r3, r3, r2
 800259c:	60e3      	strcc	r3, [r4, #12]
 800259e:	2d02      	cmp	r5, #2
 80025a0:	d1ed      	bne.n	800257e <prvCopyDataToQueue+0x38>
 80025a2:	b10e      	cbz	r6, 80025a8 <prvCopyDataToQueue+0x62>
 80025a4:	3e01      	subs	r6, #1
 80025a6:	e7ea      	b.n	800257e <prvCopyDataToQueue+0x38>
 80025a8:	4630      	mov	r0, r6
 80025aa:	e7d8      	b.n	800255e <prvCopyDataToQueue+0x18>

080025ac <prvCopyDataFromQueue>:
 80025ac:	4603      	mov	r3, r0
 80025ae:	b410      	push	{r4}
 80025b0:	6c1a      	ldr	r2, [r3, #64]	; 0x40
 80025b2:	4608      	mov	r0, r1
 80025b4:	b162      	cbz	r2, 80025d0 <prvCopyDataFromQueue+0x24>
 80025b6:	68d9      	ldr	r1, [r3, #12]
 80025b8:	689c      	ldr	r4, [r3, #8]
 80025ba:	4411      	add	r1, r2
 80025bc:	42a1      	cmp	r1, r4
 80025be:	60d9      	str	r1, [r3, #12]
 80025c0:	bf24      	itt	cs
 80025c2:	6819      	ldrcs	r1, [r3, #0]
 80025c4:	60d9      	strcs	r1, [r3, #12]
 80025c6:	68d9      	ldr	r1, [r3, #12]
 80025c8:	f85d 4b04 	ldr.w	r4, [sp], #4
 80025cc:	f002 be67 	b.w	800529e <memcpy>
 80025d0:	f85d 4b04 	ldr.w	r4, [sp], #4
 80025d4:	4770      	bx	lr

080025d6 <prvUnlockQueue>:
 80025d6:	b570      	push	{r4, r5, r6, lr}
 80025d8:	4604      	mov	r4, r0
 80025da:	f001 fd9b 	bl	8004114 <vPortEnterCritical>
 80025de:	f894 5045 	ldrb.w	r5, [r4, #69]	; 0x45
 80025e2:	f104 0624 	add.w	r6, r4, #36	; 0x24
 80025e6:	b26d      	sxtb	r5, r5
 80025e8:	2d00      	cmp	r5, #0
 80025ea:	dc14      	bgt.n	8002616 <prvUnlockQueue+0x40>
 80025ec:	23ff      	movs	r3, #255	; 0xff
 80025ee:	f884 3045 	strb.w	r3, [r4, #69]	; 0x45
 80025f2:	f001 fdb1 	bl	8004158 <vPortExitCritical>
 80025f6:	f001 fd8d 	bl	8004114 <vPortEnterCritical>
 80025fa:	f894 5044 	ldrb.w	r5, [r4, #68]	; 0x44
 80025fe:	f104 0610 	add.w	r6, r4, #16
 8002602:	b26d      	sxtb	r5, r5
 8002604:	2d00      	cmp	r5, #0
 8002606:	dc12      	bgt.n	800262e <prvUnlockQueue+0x58>
 8002608:	23ff      	movs	r3, #255	; 0xff
 800260a:	f884 3044 	strb.w	r3, [r4, #68]	; 0x44
 800260e:	e8bd 4070 	ldmia.w	sp!, {r4, r5, r6, lr}
 8002612:	f001 bda1 	b.w	8004158 <vPortExitCritical>
 8002616:	6a63      	ldr	r3, [r4, #36]	; 0x24
 8002618:	2b00      	cmp	r3, #0
 800261a:	d0e7      	beq.n	80025ec <prvUnlockQueue+0x16>
 800261c:	4630      	mov	r0, r6
 800261e:	f001 f95f 	bl	80038e0 <xTaskRemoveFromEventList>
 8002622:	b108      	cbz	r0, 8002628 <prvUnlockQueue+0x52>
 8002624:	f001 f9f4 	bl	8003a10 <vTaskMissedYield>
 8002628:	3d01      	subs	r5, #1
 800262a:	b26d      	sxtb	r5, r5
 800262c:	e7dc      	b.n	80025e8 <prvUnlockQueue+0x12>
 800262e:	6923      	ldr	r3, [r4, #16]
 8002630:	2b00      	cmp	r3, #0
 8002632:	d0e9      	beq.n	8002608 <prvUnlockQueue+0x32>
 8002634:	4630      	mov	r0, r6
 8002636:	f001 f953 	bl	80038e0 <xTaskRemoveFromEventList>
 800263a:	b108      	cbz	r0, 8002640 <prvUnlockQueue+0x6a>
 800263c:	f001 f9e8 	bl	8003a10 <vTaskMissedYield>
 8002640:	3d01      	subs	r5, #1
 8002642:	b26d      	sxtb	r5, r5
 8002644:	e7de      	b.n	8002604 <prvUnlockQueue+0x2e>
	...

08002648 <xQueueGenericReset>:
 8002648:	b538      	push	{r3, r4, r5, lr}
 800264a:	460d      	mov	r5, r1
 800264c:	4604      	mov	r4, r0
 800264e:	b940      	cbnz	r0, 8002662 <xQueueGenericReset+0x1a>
 8002650:	f04f 0350 	mov.w	r3, #80	; 0x50
 8002654:	f383 8811 	msr	BASEPRI, r3
 8002658:	f3bf 8f6f 	isb	sy
 800265c:	f3bf 8f4f 	dsb	sy
 8002660:	e7fe      	b.n	8002660 <xQueueGenericReset+0x18>
 8002662:	f001 fd57 	bl	8004114 <vPortEnterCritical>
 8002666:	e9d4 300f 	ldrd	r3, r0, [r4, #60]	; 0x3c
 800266a:	6822      	ldr	r2, [r4, #0]
 800266c:	6062      	str	r2, [r4, #4]
 800266e:	4343      	muls	r3, r0
 8002670:	18d1      	adds	r1, r2, r3
 8002672:	1a1b      	subs	r3, r3, r0
 8002674:	4413      	add	r3, r2
 8002676:	60a1      	str	r1, [r4, #8]
 8002678:	60e3      	str	r3, [r4, #12]
 800267a:	2100      	movs	r1, #0
 800267c:	23ff      	movs	r3, #255	; 0xff
 800267e:	63a1      	str	r1, [r4, #56]	; 0x38
 8002680:	f884 3044 	strb.w	r3, [r4, #68]	; 0x44
 8002684:	f884 3045 	strb.w	r3, [r4, #69]	; 0x45
 8002688:	b995      	cbnz	r5, 80026b0 <xQueueGenericReset+0x68>
 800268a:	6923      	ldr	r3, [r4, #16]
 800268c:	b163      	cbz	r3, 80026a8 <xQueueGenericReset+0x60>
 800268e:	f104 0010 	add.w	r0, r4, #16
 8002692:	f001 f925 	bl	80038e0 <xTaskRemoveFromEventList>
 8002696:	b138      	cbz	r0, 80026a8 <xQueueGenericReset+0x60>
 8002698:	4b0a      	ldr	r3, [pc, #40]	; (80026c4 <xQueueGenericReset+0x7c>)
 800269a:	f04f 5280 	mov.w	r2, #268435456	; 0x10000000
 800269e:	601a      	str	r2, [r3, #0]
 80026a0:	f3bf 8f4f 	dsb	sy
 80026a4:	f3bf 8f6f 	isb	sy
 80026a8:	f001 fd56 	bl	8004158 <vPortExitCritical>
 80026ac:	2001      	movs	r0, #1
 80026ae:	bd38      	pop	{r3, r4, r5, pc}
 80026b0:	f104 0010 	add.w	r0, r4, #16
 80026b4:	f7ff fefa 	bl	80024ac <vListInitialise>
 80026b8:	f104 0024 	add.w	r0, r4, #36	; 0x24
 80026bc:	f7ff fef6 	bl	80024ac <vListInitialise>
 80026c0:	e7f2      	b.n	80026a8 <xQueueGenericReset+0x60>
 80026c2:	bf00      	nop
 80026c4:	e000ed04 	.word	0xe000ed04

080026c8 <xQueueGenericCreateStatic>:
 80026c8:	b5f7      	push	{r0, r1, r2, r4, r5, r6, r7, lr}
 80026ca:	460d      	mov	r5, r1
 80026cc:	461c      	mov	r4, r3
 80026ce:	f89d 7020 	ldrb.w	r7, [sp, #32]
 80026d2:	4606      	mov	r6, r0
 80026d4:	b940      	cbnz	r0, 80026e8 <xQueueGenericCreateStatic+0x20>
 80026d6:	f04f 0350 	mov.w	r3, #80	; 0x50
 80026da:	f383 8811 	msr	BASEPRI, r3
 80026de:	f3bf 8f6f 	isb	sy
 80026e2:	f3bf 8f4f 	dsb	sy
 80026e6:	e7fe      	b.n	80026e6 <xQueueGenericCreateStatic+0x1e>
 80026e8:	b943      	cbnz	r3, 80026fc <xQueueGenericCreateStatic+0x34>
 80026ea:	f04f 0350 	mov.w	r3, #80	; 0x50
 80026ee:	f383 8811 	msr	BASEPRI, r3
 80026f2:	f3bf 8f6f 	isb	sy
 80026f6:	f3bf 8f4f 	dsb	sy
 80026fa:	e7fe      	b.n	80026fa <xQueueGenericCreateStatic+0x32>
 80026fc:	b14a      	cbz	r2, 8002712 <xQueueGenericCreateStatic+0x4a>
 80026fe:	b991      	cbnz	r1, 8002726 <xQueueGenericCreateStatic+0x5e>
 8002700:	f04f 0350 	mov.w	r3, #80	; 0x50
 8002704:	f383 8811 	msr	BASEPRI, r3
 8002708:	f3bf 8f6f 	isb	sy
 800270c:	f3bf 8f4f 	dsb	sy
 8002710:	e7fe      	b.n	8002710 <xQueueGenericCreateStatic+0x48>
 8002712:	b141      	cbz	r1, 8002726 <xQueueGenericCreateStatic+0x5e>
 8002714:	f04f 0350 	mov.w	r3, #80	; 0x50
 8002718:	f383 8811 	msr	BASEPRI, r3
 800271c:	f3bf 8f6f 	isb	sy
 8002720:	f3bf 8f4f 	dsb	sy
 8002724:	e7fe      	b.n	8002724 <xQueueGenericCreateStatic+0x5c>
 8002726:	2350      	movs	r3, #80	; 0x50
 8002728:	9301      	str	r3, [sp, #4]
 800272a:	9b01      	ldr	r3, [sp, #4]
 800272c:	2b50      	cmp	r3, #80	; 0x50
 800272e:	d008      	beq.n	8002742 <xQueueGenericCreateStatic+0x7a>
 8002730:	f04f 0350 	mov.w	r3, #80	; 0x50
 8002734:	f383 8811 	msr	BASEPRI, r3
 8002738:	f3bf 8f6f 	isb	sy
 800273c:	f3bf 8f4f 	dsb	sy
 8002740:	e7fe      	b.n	8002740 <xQueueGenericCreateStatic+0x78>
 8002742:	2d00      	cmp	r5, #0
 8002744:	bf08      	it	eq
 8002746:	4622      	moveq	r2, r4
 8002748:	2101      	movs	r1, #1
 800274a:	f884 1046 	strb.w	r1, [r4, #70]	; 0x46
 800274e:	6022      	str	r2, [r4, #0]
 8002750:	e9c4 650f 	strd	r6, r5, [r4, #60]	; 0x3c
 8002754:	4620      	mov	r0, r4
 8002756:	9b01      	ldr	r3, [sp, #4]
 8002758:	f7ff ff76 	bl	8002648 <xQueueGenericReset>
 800275c:	f884 704c 	strb.w	r7, [r4, #76]	; 0x4c
 8002760:	463b      	mov	r3, r7
 8002762:	462a      	mov	r2, r5
 8002764:	4631      	mov	r1, r6
 8002766:	2073      	movs	r0, #115	; 0x73
 8002768:	f002 fa4e 	bl	8004c08 <SEGGER_SYSVIEW_RecordU32x3>
 800276c:	4620      	mov	r0, r4
 800276e:	b003      	add	sp, #12
 8002770:	bdf0      	pop	{r4, r5, r6, r7, pc}

08002772 <xQueueGenericCreate>:
 8002772:	b5f8      	push	{r3, r4, r5, r6, r7, lr}
 8002774:	460e      	mov	r6, r1
 8002776:	4617      	mov	r7, r2
 8002778:	4605      	mov	r5, r0
 800277a:	b940      	cbnz	r0, 800278e <xQueueGenericCreate+0x1c>
 800277c:	f04f 0350 	mov.w	r3, #80	; 0x50
 8002780:	f383 8811 	msr	BASEPRI, r3
 8002784:	f3bf 8f6f 	isb	sy
 8002788:	f3bf 8f4f 	dsb	sy
 800278c:	e7fe      	b.n	800278c <xQueueGenericCreate+0x1a>
 800278e:	4348      	muls	r0, r1
 8002790:	3050      	adds	r0, #80	; 0x50
 8002792:	f001 fe2f 	bl	80043f4 <pvPortMalloc>
 8002796:	4604      	mov	r4, r0
 8002798:	b190      	cbz	r0, 80027c0 <xQueueGenericCreate+0x4e>
 800279a:	2300      	movs	r3, #0
 800279c:	f880 3046 	strb.w	r3, [r0, #70]	; 0x46
 80027a0:	b986      	cbnz	r6, 80027c4 <xQueueGenericCreate+0x52>
 80027a2:	6020      	str	r0, [r4, #0]
 80027a4:	2101      	movs	r1, #1
 80027a6:	e9c4 560f 	strd	r5, r6, [r4, #60]	; 0x3c
 80027aa:	4620      	mov	r0, r4
 80027ac:	f7ff ff4c 	bl	8002648 <xQueueGenericReset>
 80027b0:	f884 704c 	strb.w	r7, [r4, #76]	; 0x4c
 80027b4:	463b      	mov	r3, r7
 80027b6:	4632      	mov	r2, r6
 80027b8:	4629      	mov	r1, r5
 80027ba:	2073      	movs	r0, #115	; 0x73
 80027bc:	f002 fa24 	bl	8004c08 <SEGGER_SYSVIEW_RecordU32x3>
 80027c0:	4620      	mov	r0, r4
 80027c2:	bdf8      	pop	{r3, r4, r5, r6, r7, pc}
 80027c4:	f100 0350 	add.w	r3, r0, #80	; 0x50
 80027c8:	6003      	str	r3, [r0, #0]
 80027ca:	e7eb      	b.n	80027a4 <xQueueGenericCreate+0x32>

080027cc <xQueueCreateCountingSemaphoreStatic>:
 80027cc:	b513      	push	{r0, r1, r4, lr}
 80027ce:	4613      	mov	r3, r2
 80027d0:	460c      	mov	r4, r1
 80027d2:	b940      	cbnz	r0, 80027e6 <xQueueCreateCountingSemaphoreStatic+0x1a>
 80027d4:	f04f 0350 	mov.w	r3, #80	; 0x50
 80027d8:	f383 8811 	msr	BASEPRI, r3
 80027dc:	f3bf 8f6f 	isb	sy
 80027e0:	f3bf 8f4f 	dsb	sy
 80027e4:	e7fe      	b.n	80027e4 <xQueueCreateCountingSemaphoreStatic+0x18>
 80027e6:	4288      	cmp	r0, r1
 80027e8:	d208      	bcs.n	80027fc <xQueueCreateCountingSemaphoreStatic+0x30>
 80027ea:	f04f 0350 	mov.w	r3, #80	; 0x50
 80027ee:	f383 8811 	msr	BASEPRI, r3
 80027f2:	f3bf 8f6f 	isb	sy
 80027f6:	f3bf 8f4f 	dsb	sy
 80027fa:	e7fe      	b.n	80027fa <xQueueCreateCountingSemaphoreStatic+0x2e>
 80027fc:	2202      	movs	r2, #2
 80027fe:	9200      	str	r2, [sp, #0]
 8002800:	2200      	movs	r2, #0
 8002802:	4611      	mov	r1, r2
 8002804:	f7ff ff60 	bl	80026c8 <xQueueGenericCreateStatic>
 8002808:	b100      	cbz	r0, 800280c <xQueueCreateCountingSemaphoreStatic+0x40>
 800280a:	6384      	str	r4, [r0, #56]	; 0x38
 800280c:	b002      	add	sp, #8
 800280e:	bd10      	pop	{r4, pc}

08002810 <xQueueCreateCountingSemaphore>:
 8002810:	b510      	push	{r4, lr}
 8002812:	460c      	mov	r4, r1
 8002814:	b940      	cbnz	r0, 8002828 <xQueueCreateCountingSemaphore+0x18>
 8002816:	f04f 0350 	mov.w	r3, #80	; 0x50
 800281a:	f383 8811 	msr	BASEPRI, r3
 800281e:	f3bf 8f6f 	isb	sy
 8002822:	f3bf 8f4f 	dsb	sy
 8002826:	e7fe      	b.n	8002826 <xQueueCreateCountingSemaphore+0x16>
 8002828:	4288      	cmp	r0, r1
 800282a:	d208      	bcs.n	800283e <xQueueCreateCountingSemaphore+0x2e>
 800282c:	f04f 0350 	mov.w	r3, #80	; 0x50
 8002830:	f383 8811 	msr	BASEPRI, r3
 8002834:	f3bf 8f6f 	isb	sy
 8002838:	f3bf 8f4f 	dsb	sy
 800283c:	e7fe      	b.n	800283c <xQueueCreateCountingSemaphore+0x2c>
 800283e:	2202      	movs	r2, #2
 8002840:	2100      	movs	r1, #0
 8002842:	f7ff ff96 	bl	8002772 <xQueueGenericCreate>
 8002846:	b100      	cbz	r0, 800284a <xQueueCreateCountingSemaphore+0x3a>
 8002848:	6384      	str	r4, [r0, #56]	; 0x38
 800284a:	bd10      	pop	{r4, pc}

0800284c <xQueueGenericSend>:
 800284c:	e92d 47f0 	stmdb	sp!, {r4, r5, r6, r7, r8, r9, sl, lr}
 8002850:	b086      	sub	sp, #24
 8002852:	4688      	mov	r8, r1
 8002854:	9203      	str	r2, [sp, #12]
 8002856:	461e      	mov	r6, r3
 8002858:	4604      	mov	r4, r0
 800285a:	b940      	cbnz	r0, 800286e <xQueueGenericSend+0x22>
 800285c:	f04f 0350 	mov.w	r3, #80	; 0x50
 8002860:	f383 8811 	msr	BASEPRI, r3
 8002864:	f3bf 8f6f 	isb	sy
 8002868:	f3bf 8f4f 	dsb	sy
 800286c:	e7fe      	b.n	800286c <xQueueGenericSend+0x20>
 800286e:	b951      	cbnz	r1, 8002886 <xQueueGenericSend+0x3a>
 8002870:	6c03      	ldr	r3, [r0, #64]	; 0x40
 8002872:	b143      	cbz	r3, 8002886 <xQueueGenericSend+0x3a>
 8002874:	f04f 0350 	mov.w	r3, #80	; 0x50
 8002878:	f383 8811 	msr	BASEPRI, r3
 800287c:	f3bf 8f6f 	isb	sy
 8002880:	f3bf 8f4f 	dsb	sy
 8002884:	e7fe      	b.n	8002884 <xQueueGenericSend+0x38>
 8002886:	2e02      	cmp	r6, #2
 8002888:	d10b      	bne.n	80028a2 <xQueueGenericSend+0x56>
 800288a:	6be3      	ldr	r3, [r4, #60]	; 0x3c
 800288c:	2b01      	cmp	r3, #1
 800288e:	d008      	beq.n	80028a2 <xQueueGenericSend+0x56>
 8002890:	f04f 0350 	mov.w	r3, #80	; 0x50
 8002894:	f383 8811 	msr	BASEPRI, r3
 8002898:	f3bf 8f6f 	isb	sy
 800289c:	f3bf 8f4f 	dsb	sy
 80028a0:	e7fe      	b.n	80028a0 <xQueueGenericSend+0x54>
 80028a2:	f001 f8cb 	bl	8003a3c <xTaskGetSchedulerState>
 80028a6:	b950      	cbnz	r0, 80028be <xQueueGenericSend+0x72>
 80028a8:	9f03      	ldr	r7, [sp, #12]
 80028aa:	b14f      	cbz	r7, 80028c0 <xQueueGenericSend+0x74>
 80028ac:	f04f 0350 	mov.w	r3, #80	; 0x50
 80028b0:	f383 8811 	msr	BASEPRI, r3
 80028b4:	f3bf 8f6f 	isb	sy
 80028b8:	f3bf 8f4f 	dsb	sy
 80028bc:	e7fe      	b.n	80028bc <xQueueGenericSend+0x70>
 80028be:	2700      	movs	r7, #0
 80028c0:	f04f 0900 	mov.w	r9, #0
 80028c4:	f8df a10c 	ldr.w	sl, [pc, #268]	; 80029d4 <xQueueGenericSend+0x188>
 80028c8:	e041      	b.n	800294e <xQueueGenericSend+0x102>
 80028ca:	9d03      	ldr	r5, [sp, #12]
 80028cc:	b96d      	cbnz	r5, 80028ea <xQueueGenericSend+0x9e>
 80028ce:	f001 fc43 	bl	8004158 <vPortExitCritical>
 80028d2:	4620      	mov	r0, r4
 80028d4:	f001 ff9c 	bl	8004810 <SEGGER_SYSVIEW_ShrinkId>
 80028d8:	9600      	str	r6, [sp, #0]
 80028da:	4601      	mov	r1, r0
 80028dc:	9b03      	ldr	r3, [sp, #12]
 80028de:	205a      	movs	r0, #90	; 0x5a
 80028e0:	4642      	mov	r2, r8
 80028e2:	f002 f9cb 	bl	8004c7c <SEGGER_SYSVIEW_RecordU32x4>
 80028e6:	2000      	movs	r0, #0
 80028e8:	e05a      	b.n	80029a0 <xQueueGenericSend+0x154>
 80028ea:	b917      	cbnz	r7, 80028f2 <xQueueGenericSend+0xa6>
 80028ec:	a804      	add	r0, sp, #16
 80028ee:	f001 f83b 	bl	8003968 <vTaskInternalSetTimeOutState>
 80028f2:	f001 fc31 	bl	8004158 <vPortExitCritical>
 80028f6:	f000 fe0d 	bl	8003514 <vTaskSuspendAll>
 80028fa:	f001 fc0b 	bl	8004114 <vPortEnterCritical>
 80028fe:	f894 3044 	ldrb.w	r3, [r4, #68]	; 0x44
 8002902:	2bff      	cmp	r3, #255	; 0xff
 8002904:	bf08      	it	eq
 8002906:	f884 9044 	strbeq.w	r9, [r4, #68]	; 0x44
 800290a:	f894 3045 	ldrb.w	r3, [r4, #69]	; 0x45
 800290e:	2bff      	cmp	r3, #255	; 0xff
 8002910:	bf08      	it	eq
 8002912:	f884 9045 	strbeq.w	r9, [r4, #69]	; 0x45
 8002916:	f001 fc1f 	bl	8004158 <vPortExitCritical>
 800291a:	a903      	add	r1, sp, #12
 800291c:	a804      	add	r0, sp, #16
 800291e:	f001 f82f 	bl	8003980 <xTaskCheckForTimeOut>
 8002922:	2800      	cmp	r0, #0
 8002924:	d150      	bne.n	80029c8 <xQueueGenericSend+0x17c>
 8002926:	f001 fbf5 	bl	8004114 <vPortEnterCritical>
 800292a:	6ba2      	ldr	r2, [r4, #56]	; 0x38
 800292c:	6be3      	ldr	r3, [r4, #60]	; 0x3c
 800292e:	429a      	cmp	r2, r3
 8002930:	d139      	bne.n	80029a6 <xQueueGenericSend+0x15a>
 8002932:	f001 fc11 	bl	8004158 <vPortExitCritical>
 8002936:	9903      	ldr	r1, [sp, #12]
 8002938:	f104 0010 	add.w	r0, r4, #16
 800293c:	f000 ff94 	bl	8003868 <vTaskPlaceOnEventList>
 8002940:	4620      	mov	r0, r4
 8002942:	f7ff fe48 	bl	80025d6 <prvUnlockQueue>
 8002946:	f000 fe8f 	bl	8003668 <xTaskResumeAll>
 800294a:	b3a0      	cbz	r0, 80029b6 <xQueueGenericSend+0x16a>
 800294c:	2701      	movs	r7, #1
 800294e:	f001 fbe1 	bl	8004114 <vPortEnterCritical>
 8002952:	6ba2      	ldr	r2, [r4, #56]	; 0x38
 8002954:	6be3      	ldr	r3, [r4, #60]	; 0x3c
 8002956:	429a      	cmp	r2, r3
 8002958:	d301      	bcc.n	800295e <xQueueGenericSend+0x112>
 800295a:	2e02      	cmp	r6, #2
 800295c:	d1b5      	bne.n	80028ca <xQueueGenericSend+0x7e>
 800295e:	4620      	mov	r0, r4
 8002960:	f001 ff56 	bl	8004810 <SEGGER_SYSVIEW_ShrinkId>
 8002964:	9b03      	ldr	r3, [sp, #12]
 8002966:	9600      	str	r6, [sp, #0]
 8002968:	4601      	mov	r1, r0
 800296a:	4642      	mov	r2, r8
 800296c:	205a      	movs	r0, #90	; 0x5a
 800296e:	f002 f985 	bl	8004c7c <SEGGER_SYSVIEW_RecordU32x4>
 8002972:	4632      	mov	r2, r6
 8002974:	4641      	mov	r1, r8
 8002976:	4620      	mov	r0, r4
 8002978:	f7ff fde5 	bl	8002546 <prvCopyDataToQueue>
 800297c:	6a63      	ldr	r3, [r4, #36]	; 0x24
 800297e:	b11b      	cbz	r3, 8002988 <xQueueGenericSend+0x13c>
 8002980:	f104 0024 	add.w	r0, r4, #36	; 0x24
 8002984:	f000 ffac 	bl	80038e0 <xTaskRemoveFromEventList>
 8002988:	b138      	cbz	r0, 800299a <xQueueGenericSend+0x14e>
 800298a:	4b12      	ldr	r3, [pc, #72]	; (80029d4 <xQueueGenericSend+0x188>)
 800298c:	f04f 5280 	mov.w	r2, #268435456	; 0x10000000
 8002990:	601a      	str	r2, [r3, #0]
 8002992:	f3bf 8f4f 	dsb	sy
 8002996:	f3bf 8f6f 	isb	sy
 800299a:	f001 fbdd 	bl	8004158 <vPortExitCritical>
 800299e:	2001      	movs	r0, #1
 80029a0:	b006      	add	sp, #24
 80029a2:	e8bd 87f0 	ldmia.w	sp!, {r4, r5, r6, r7, r8, r9, sl, pc}
 80029a6:	f001 fbd7 	bl	8004158 <vPortExitCritical>
 80029aa:	4620      	mov	r0, r4
 80029ac:	f7ff fe13 	bl	80025d6 <prvUnlockQueue>
 80029b0:	f000 fe5a 	bl	8003668 <xTaskResumeAll>
 80029b4:	e7ca      	b.n	800294c <xQueueGenericSend+0x100>
 80029b6:	f04f 5380 	mov.w	r3, #268435456	; 0x10000000
 80029ba:	f8ca 3000 	str.w	r3, [sl]
 80029be:	f3bf 8f4f 	dsb	sy
 80029c2:	f3bf 8f6f 	isb	sy
 80029c6:	e7c1      	b.n	800294c <xQueueGenericSend+0x100>
 80029c8:	4620      	mov	r0, r4
 80029ca:	f7ff fe04 	bl	80025d6 <prvUnlockQueue>
 80029ce:	f000 fe4b 	bl	8003668 <xTaskResumeAll>
 80029d2:	e77e      	b.n	80028d2 <xQueueGenericSend+0x86>
 80029d4:	e000ed04 	.word	0xe000ed04

080029d8 <xQueueGenericSendFromISR>:
 80029d8:	e92d 43f8 	stmdb	sp!, {r3, r4, r5, r6, r7, r8, r9, lr}
 80029dc:	4689      	mov	r9, r1
 80029de:	4617      	mov	r7, r2
 80029e0:	4698      	mov	r8, r3
 80029e2:	4604      	mov	r4, r0
 80029e4:	b940      	cbnz	r0, 80029f8 <xQueueGenericSendFromISR+0x20>
 80029e6:	f04f 0350 	mov.w	r3, #80	; 0x50
 80029ea:	f383 8811 	msr	BASEPRI, r3
 80029ee:	f3bf 8f6f 	isb	sy
 80029f2:	f3bf 8f4f 	dsb	sy
 80029f6:	e7fe      	b.n	80029f6 <xQueueGenericSendFromISR+0x1e>
 80029f8:	b951      	cbnz	r1, 8002a10 <xQueueGenericSendFromISR+0x38>
 80029fa:	6c03      	ldr	r3, [r0, #64]	; 0x40
 80029fc:	b143      	cbz	r3, 8002a10 <xQueueGenericSendFromISR+0x38>
 80029fe:	f04f 0350 	mov.w	r3, #80	; 0x50
 8002a02:	f383 8811 	msr	BASEPRI, r3
 8002a06:	f3bf 8f6f 	isb	sy
 8002a0a:	f3bf 8f4f 	dsb	sy
 8002a0e:	e7fe      	b.n	8002a0e <xQueueGenericSendFromISR+0x36>
 8002a10:	f1b8 0f02 	cmp.w	r8, #2
 8002a14:	d10b      	bne.n	8002a2e <xQueueGenericSendFromISR+0x56>
 8002a16:	6be3      	ldr	r3, [r4, #60]	; 0x3c
 8002a18:	2b01      	cmp	r3, #1
 8002a1a:	d008      	beq.n	8002a2e <xQueueGenericSendFromISR+0x56>
 8002a1c:	f04f 0350 	mov.w	r3, #80	; 0x50
 8002a20:	f383 8811 	msr	BASEPRI, r3
 8002a24:	f3bf 8f6f 	isb	sy
 8002a28:	f3bf 8f4f 	dsb	sy
 8002a2c:	e7fe      	b.n	8002a2c <xQueueGenericSendFromISR+0x54>
 8002a2e:	f001 fc8f 	bl	8004350 <vPortValidateInterruptPriority>
 8002a32:	f3ef 8611 	mrs	r6, BASEPRI
 8002a36:	f04f 0350 	mov.w	r3, #80	; 0x50
 8002a3a:	f383 8811 	msr	BASEPRI, r3
 8002a3e:	f3bf 8f6f 	isb	sy
 8002a42:	f3bf 8f4f 	dsb	sy
 8002a46:	6ba2      	ldr	r2, [r4, #56]	; 0x38
 8002a48:	6be3      	ldr	r3, [r4, #60]	; 0x3c
 8002a4a:	429a      	cmp	r2, r3
 8002a4c:	d302      	bcc.n	8002a54 <xQueueGenericSendFromISR+0x7c>
 8002a4e:	f1b8 0f02 	cmp.w	r8, #2
 8002a52:	d128      	bne.n	8002aa6 <xQueueGenericSendFromISR+0xce>
 8002a54:	4620      	mov	r0, r4
 8002a56:	f894 5045 	ldrb.w	r5, [r4, #69]	; 0x45
 8002a5a:	f001 fed9 	bl	8004810 <SEGGER_SYSVIEW_ShrinkId>
 8002a5e:	463a      	mov	r2, r7
 8002a60:	4601      	mov	r1, r0
 8002a62:	2060      	movs	r0, #96	; 0x60
 8002a64:	f002 f88a 	bl	8004b7c <SEGGER_SYSVIEW_RecordU32x2>
 8002a68:	b26d      	sxtb	r5, r5
 8002a6a:	4642      	mov	r2, r8
 8002a6c:	4649      	mov	r1, r9
 8002a6e:	4620      	mov	r0, r4
 8002a70:	f7ff fd69 	bl	8002546 <prvCopyDataToQueue>
 8002a74:	1c6b      	adds	r3, r5, #1
 8002a76:	d111      	bne.n	8002a9c <xQueueGenericSendFromISR+0xc4>
 8002a78:	6a63      	ldr	r3, [r4, #36]	; 0x24
 8002a7a:	b90b      	cbnz	r3, 8002a80 <xQueueGenericSendFromISR+0xa8>
 8002a7c:	2001      	movs	r0, #1
 8002a7e:	e009      	b.n	8002a94 <xQueueGenericSendFromISR+0xbc>
 8002a80:	f104 0024 	add.w	r0, r4, #36	; 0x24
 8002a84:	f000 ff2c 	bl	80038e0 <xTaskRemoveFromEventList>
 8002a88:	2800      	cmp	r0, #0
 8002a8a:	d0f7      	beq.n	8002a7c <xQueueGenericSendFromISR+0xa4>
 8002a8c:	2f00      	cmp	r7, #0
 8002a8e:	d0f5      	beq.n	8002a7c <xQueueGenericSendFromISR+0xa4>
 8002a90:	2001      	movs	r0, #1
 8002a92:	6038      	str	r0, [r7, #0]
 8002a94:	f386 8811 	msr	BASEPRI, r6
 8002a98:	e8bd 83f8 	ldmia.w	sp!, {r3, r4, r5, r6, r7, r8, r9, pc}
 8002a9c:	3501      	adds	r5, #1
 8002a9e:	b26d      	sxtb	r5, r5
 8002aa0:	f884 5045 	strb.w	r5, [r4, #69]	; 0x45
 8002aa4:	e7ea      	b.n	8002a7c <xQueueGenericSendFromISR+0xa4>
 8002aa6:	4620      	mov	r0, r4
 8002aa8:	f001 feb2 	bl	8004810 <SEGGER_SYSVIEW_ShrinkId>
 8002aac:	463a      	mov	r2, r7
 8002aae:	4601      	mov	r1, r0
 8002ab0:	2060      	movs	r0, #96	; 0x60
 8002ab2:	f002 f863 	bl	8004b7c <SEGGER_SYSVIEW_RecordU32x2>
 8002ab6:	2000      	movs	r0, #0
 8002ab8:	e7ec      	b.n	8002a94 <xQueueGenericSendFromISR+0xbc>

08002aba <xQueueGiveFromISR>:
 8002aba:	e92d 41f0 	stmdb	sp!, {r4, r5, r6, r7, r8, lr}
 8002abe:	460f      	mov	r7, r1
 8002ac0:	4604      	mov	r4, r0
 8002ac2:	b940      	cbnz	r0, 8002ad6 <xQueueGiveFromISR+0x1c>
 8002ac4:	f04f 0350 	mov.w	r3, #80	; 0x50
 8002ac8:	f383 8811 	msr	BASEPRI, r3
 8002acc:	f3bf 8f6f 	isb	sy
 8002ad0:	f3bf 8f4f 	dsb	sy
 8002ad4:	e7fe      	b.n	8002ad4 <xQueueGiveFromISR+0x1a>
 8002ad6:	6c03      	ldr	r3, [r0, #64]	; 0x40
 8002ad8:	b143      	cbz	r3, 8002aec <xQueueGiveFromISR+0x32>
 8002ada:	f04f 0350 	mov.w	r3, #80	; 0x50
 8002ade:	f383 8811 	msr	BASEPRI, r3
 8002ae2:	f3bf 8f6f 	isb	sy
 8002ae6:	f3bf 8f4f 	dsb	sy
 8002aea:	e7fe      	b.n	8002aea <xQueueGiveFromISR+0x30>
 8002aec:	6803      	ldr	r3, [r0, #0]
 8002aee:	b953      	cbnz	r3, 8002b06 <xQueueGiveFromISR+0x4c>
 8002af0:	6883      	ldr	r3, [r0, #8]
 8002af2:	b143      	cbz	r3, 8002b06 <xQueueGiveFromISR+0x4c>
 8002af4:	f04f 0350 	mov.w	r3, #80	; 0x50
 8002af8:	f383 8811 	msr	BASEPRI, r3
 8002afc:	f3bf 8f6f 	isb	sy
 8002b00:	f3bf 8f4f 	dsb	sy
 8002b04:	e7fe      	b.n	8002b04 <xQueueGiveFromISR+0x4a>
 8002b06:	f001 fc23 	bl	8004350 <vPortValidateInterruptPriority>
 8002b0a:	f3ef 8611 	mrs	r6, BASEPRI
 8002b0e:	f04f 0350 	mov.w	r3, #80	; 0x50
 8002b12:	f383 8811 	msr	BASEPRI, r3
 8002b16:	f3bf 8f6f 	isb	sy
 8002b1a:	f3bf 8f4f 	dsb	sy
 8002b1e:	f8d4 8038 	ldr.w	r8, [r4, #56]	; 0x38
 8002b22:	6be3      	ldr	r3, [r4, #60]	; 0x3c
 8002b24:	4543      	cmp	r3, r8
 8002b26:	d926      	bls.n	8002b76 <xQueueGiveFromISR+0xbc>
 8002b28:	4620      	mov	r0, r4
 8002b2a:	f894 5045 	ldrb.w	r5, [r4, #69]	; 0x45
 8002b2e:	f001 fe6f 	bl	8004810 <SEGGER_SYSVIEW_ShrinkId>
 8002b32:	463a      	mov	r2, r7
 8002b34:	4601      	mov	r1, r0
 8002b36:	2060      	movs	r0, #96	; 0x60
 8002b38:	f002 f820 	bl	8004b7c <SEGGER_SYSVIEW_RecordU32x2>
 8002b3c:	b26d      	sxtb	r5, r5
 8002b3e:	f108 0301 	add.w	r3, r8, #1
 8002b42:	63a3      	str	r3, [r4, #56]	; 0x38
 8002b44:	1c6b      	adds	r3, r5, #1
 8002b46:	d111      	bne.n	8002b6c <xQueueGiveFromISR+0xb2>
 8002b48:	6a63      	ldr	r3, [r4, #36]	; 0x24
 8002b4a:	b90b      	cbnz	r3, 8002b50 <xQueueGiveFromISR+0x96>
 8002b4c:	2001      	movs	r0, #1
 8002b4e:	e009      	b.n	8002b64 <xQueueGiveFromISR+0xaa>
 8002b50:	f104 0024 	add.w	r0, r4, #36	; 0x24
 8002b54:	f000 fec4 	bl	80038e0 <xTaskRemoveFromEventList>
 8002b58:	2800      	cmp	r0, #0
 8002b5a:	d0f7      	beq.n	8002b4c <xQueueGiveFromISR+0x92>
 8002b5c:	2f00      	cmp	r7, #0
 8002b5e:	d0f5      	beq.n	8002b4c <xQueueGiveFromISR+0x92>
 8002b60:	2001      	movs	r0, #1
 8002b62:	6038      	str	r0, [r7, #0]
 8002b64:	f386 8811 	msr	BASEPRI, r6
 8002b68:	e8bd 81f0 	ldmia.w	sp!, {r4, r5, r6, r7, r8, pc}
 8002b6c:	3501      	adds	r5, #1
 8002b6e:	b26d      	sxtb	r5, r5
 8002b70:	f884 5045 	strb.w	r5, [r4, #69]	; 0x45
 8002b74:	e7ea      	b.n	8002b4c <xQueueGiveFromISR+0x92>
 8002b76:	4620      	mov	r0, r4
 8002b78:	f001 fe4a 	bl	8004810 <SEGGER_SYSVIEW_ShrinkId>
 8002b7c:	463a      	mov	r2, r7
 8002b7e:	4601      	mov	r1, r0
 8002b80:	2060      	movs	r0, #96	; 0x60
 8002b82:	f001 fffb 	bl	8004b7c <SEGGER_SYSVIEW_RecordU32x2>
 8002b86:	2000      	movs	r0, #0
 8002b88:	e7ec      	b.n	8002b64 <xQueueGiveFromISR+0xaa>
	...

08002b8c <xQueueReceive>:
 8002b8c:	e92d 43f0 	stmdb	sp!, {r4, r5, r6, r7, r8, r9, lr}
 8002b90:	b087      	sub	sp, #28
 8002b92:	460f      	mov	r7, r1
 8002b94:	9203      	str	r2, [sp, #12]
 8002b96:	4604      	mov	r4, r0
 8002b98:	b940      	cbnz	r0, 8002bac <xQueueReceive+0x20>
 8002b9a:	f04f 0350 	mov.w	r3, #80	; 0x50
 8002b9e:	f383 8811 	msr	BASEPRI, r3
 8002ba2:	f3bf 8f6f 	isb	sy
 8002ba6:	f3bf 8f4f 	dsb	sy
 8002baa:	e7fe      	b.n	8002baa <xQueueReceive+0x1e>
 8002bac:	b951      	cbnz	r1, 8002bc4 <xQueueReceive+0x38>
 8002bae:	6c03      	ldr	r3, [r0, #64]	; 0x40
 8002bb0:	b143      	cbz	r3, 8002bc4 <xQueueReceive+0x38>
 8002bb2:	f04f 0350 	mov.w	r3, #80	; 0x50
 8002bb6:	f383 8811 	msr	BASEPRI, r3
 8002bba:	f3bf 8f6f 	isb	sy
 8002bbe:	f3bf 8f4f 	dsb	sy
 8002bc2:	e7fe      	b.n	8002bc2 <xQueueReceive+0x36>
 8002bc4:	f000 ff3a 	bl	8003a3c <xTaskGetSchedulerState>
 8002bc8:	b950      	cbnz	r0, 8002be0 <xQueueReceive+0x54>
 8002bca:	9e03      	ldr	r6, [sp, #12]
 8002bcc:	b14e      	cbz	r6, 8002be2 <xQueueReceive+0x56>
 8002bce:	f04f 0350 	mov.w	r3, #80	; 0x50
 8002bd2:	f383 8811 	msr	BASEPRI, r3
 8002bd6:	f3bf 8f6f 	isb	sy
 8002bda:	f3bf 8f4f 	dsb	sy
 8002bde:	e7fe      	b.n	8002bde <xQueueReceive+0x52>
 8002be0:	2600      	movs	r6, #0
 8002be2:	f04f 0800 	mov.w	r8, #0
 8002be6:	f8df 911c 	ldr.w	r9, [pc, #284]	; 8002d04 <xQueueReceive+0x178>
 8002bea:	e04b      	b.n	8002c84 <xQueueReceive+0xf8>
 8002bec:	9d03      	ldr	r5, [sp, #12]
 8002bee:	b995      	cbnz	r5, 8002c16 <xQueueReceive+0x8a>
 8002bf0:	f001 fab2 	bl	8004158 <vPortExitCritical>
 8002bf4:	4620      	mov	r0, r4
 8002bf6:	f001 fe0b 	bl	8004810 <SEGGER_SYSVIEW_ShrinkId>
 8002bfa:	4604      	mov	r4, r0
 8002bfc:	2000      	movs	r0, #0
 8002bfe:	f001 fe07 	bl	8004810 <SEGGER_SYSVIEW_ShrinkId>
 8002c02:	2301      	movs	r3, #1
 8002c04:	9300      	str	r3, [sp, #0]
 8002c06:	4602      	mov	r2, r0
 8002c08:	9b03      	ldr	r3, [sp, #12]
 8002c0a:	205c      	movs	r0, #92	; 0x5c
 8002c0c:	4621      	mov	r1, r4
 8002c0e:	f002 f835 	bl	8004c7c <SEGGER_SYSVIEW_RecordU32x4>
 8002c12:	2000      	movs	r0, #0
 8002c14:	e062      	b.n	8002cdc <xQueueReceive+0x150>
 8002c16:	b916      	cbnz	r6, 8002c1e <xQueueReceive+0x92>
 8002c18:	a804      	add	r0, sp, #16
 8002c1a:	f000 fea5 	bl	8003968 <vTaskInternalSetTimeOutState>
 8002c1e:	f001 fa9b 	bl	8004158 <vPortExitCritical>
 8002c22:	f000 fc77 	bl	8003514 <vTaskSuspendAll>
 8002c26:	f001 fa75 	bl	8004114 <vPortEnterCritical>
 8002c2a:	f894 3044 	ldrb.w	r3, [r4, #68]	; 0x44
 8002c2e:	2bff      	cmp	r3, #255	; 0xff
 8002c30:	bf08      	it	eq
 8002c32:	f884 8044 	strbeq.w	r8, [r4, #68]	; 0x44
 8002c36:	f894 3045 	ldrb.w	r3, [r4, #69]	; 0x45
 8002c3a:	2bff      	cmp	r3, #255	; 0xff
 8002c3c:	bf08      	it	eq
 8002c3e:	f884 8045 	strbeq.w	r8, [r4, #69]	; 0x45
 8002c42:	f001 fa89 	bl	8004158 <vPortExitCritical>
 8002c46:	a903      	add	r1, sp, #12
 8002c48:	a804      	add	r0, sp, #16
 8002c4a:	f000 fe99 	bl	8003980 <xTaskCheckForTimeOut>
 8002c4e:	2800      	cmp	r0, #0
 8002c50:	d14d      	bne.n	8002cee <xQueueReceive+0x162>
 8002c52:	4620      	mov	r0, r4
 8002c54:	f7ff fc6c 	bl	8002530 <prvIsQueueEmpty>
 8002c58:	2800      	cmp	r0, #0
 8002c5a:	d042      	beq.n	8002ce2 <xQueueReceive+0x156>
 8002c5c:	9903      	ldr	r1, [sp, #12]
 8002c5e:	f104 0024 	add.w	r0, r4, #36	; 0x24
 8002c62:	f000 fe01 	bl	8003868 <vTaskPlaceOnEventList>
 8002c66:	4620      	mov	r0, r4
 8002c68:	f7ff fcb5 	bl	80025d6 <prvUnlockQueue>
 8002c6c:	f000 fcfc 	bl	8003668 <xTaskResumeAll>
 8002c70:	b938      	cbnz	r0, 8002c82 <xQueueReceive+0xf6>
 8002c72:	f04f 5380 	mov.w	r3, #268435456	; 0x10000000
 8002c76:	f8c9 3000 	str.w	r3, [r9]
 8002c7a:	f3bf 8f4f 	dsb	sy
 8002c7e:	f3bf 8f6f 	isb	sy
 8002c82:	2601      	movs	r6, #1
 8002c84:	f001 fa46 	bl	8004114 <vPortEnterCritical>
 8002c88:	6ba5      	ldr	r5, [r4, #56]	; 0x38
 8002c8a:	2d00      	cmp	r5, #0
 8002c8c:	d0ae      	beq.n	8002bec <xQueueReceive+0x60>
 8002c8e:	4639      	mov	r1, r7
 8002c90:	4620      	mov	r0, r4
 8002c92:	f7ff fc8b 	bl	80025ac <prvCopyDataFromQueue>
 8002c96:	4620      	mov	r0, r4
 8002c98:	f001 fdba 	bl	8004810 <SEGGER_SYSVIEW_ShrinkId>
 8002c9c:	4606      	mov	r6, r0
 8002c9e:	2000      	movs	r0, #0
 8002ca0:	f001 fdb6 	bl	8004810 <SEGGER_SYSVIEW_ShrinkId>
 8002ca4:	2301      	movs	r3, #1
 8002ca6:	9300      	str	r3, [sp, #0]
 8002ca8:	4602      	mov	r2, r0
 8002caa:	9b03      	ldr	r3, [sp, #12]
 8002cac:	4631      	mov	r1, r6
 8002cae:	205c      	movs	r0, #92	; 0x5c
 8002cb0:	3d01      	subs	r5, #1
 8002cb2:	f001 ffe3 	bl	8004c7c <SEGGER_SYSVIEW_RecordU32x4>
 8002cb6:	63a5      	str	r5, [r4, #56]	; 0x38
 8002cb8:	6923      	ldr	r3, [r4, #16]
 8002cba:	b163      	cbz	r3, 8002cd6 <xQueueReceive+0x14a>
 8002cbc:	f104 0010 	add.w	r0, r4, #16
 8002cc0:	f000 fe0e 	bl	80038e0 <xTaskRemoveFromEventList>
 8002cc4:	b138      	cbz	r0, 8002cd6 <xQueueReceive+0x14a>
 8002cc6:	4b0f      	ldr	r3, [pc, #60]	; (8002d04 <xQueueReceive+0x178>)
 8002cc8:	f04f 5280 	mov.w	r2, #268435456	; 0x10000000
 8002ccc:	601a      	str	r2, [r3, #0]
 8002cce:	f3bf 8f4f 	dsb	sy
 8002cd2:	f3bf 8f6f 	isb	sy
 8002cd6:	f001 fa3f 	bl	8004158 <vPortExitCritical>
 8002cda:	2001      	movs	r0, #1
 8002cdc:	b007      	add	sp, #28
 8002cde:	e8bd 83f0 	ldmia.w	sp!, {r4, r5, r6, r7, r8, r9, pc}
 8002ce2:	4620      	mov	r0, r4
 8002ce4:	f7ff fc77 	bl	80025d6 <prvUnlockQueue>
 8002ce8:	f000 fcbe 	bl	8003668 <xTaskResumeAll>
 8002cec:	e7c9      	b.n	8002c82 <xQueueReceive+0xf6>
 8002cee:	4620      	mov	r0, r4
 8002cf0:	f7ff fc71 	bl	80025d6 <prvUnlockQueue>
 8002cf4:	f000 fcb8 	bl	8003668 <xTaskResumeAll>
 8002cf8:	4620      	mov	r0, r4
 8002cfa:	f7ff fc19 	bl	8002530 <prvIsQueueEmpty>
 8002cfe:	2800      	cmp	r0, #0
 8002d00:	d0bf      	beq.n	8002c82 <xQueueReceive+0xf6>
 8002d02:	e777      	b.n	8002bf4 <xQueueReceive+0x68>
 8002d04:	e000ed04 	.word	0xe000ed04

08002d08 <xQueueSemaphoreTake>:
 8002d08:	e92d 43f0 	stmdb	sp!, {r4, r5, r6, r7, r8, r9, lr}
 8002d0c:	b087      	sub	sp, #28
 8002d0e:	4604      	mov	r4, r0
 8002d10:	9103      	str	r1, [sp, #12]
 8002d12:	b940      	cbnz	r0, 8002d26 <xQueueSemaphoreTake+0x1e>
 8002d14:	f04f 0350 	mov.w	r3, #80	; 0x50
 8002d18:	f383 8811 	msr	BASEPRI, r3
 8002d1c:	f3bf 8f6f 	isb	sy
 8002d20:	f3bf 8f4f 	dsb	sy
 8002d24:	e7fe      	b.n	8002d24 <xQueueSemaphoreTake+0x1c>
 8002d26:	6c05      	ldr	r5, [r0, #64]	; 0x40
 8002d28:	b145      	cbz	r5, 8002d3c <xQueueSemaphoreTake+0x34>
 8002d2a:	f04f 0350 	mov.w	r3, #80	; 0x50
 8002d2e:	f383 8811 	msr	BASEPRI, r3
 8002d32:	f3bf 8f6f 	isb	sy
 8002d36:	f3bf 8f4f 	dsb	sy
 8002d3a:	e7fe      	b.n	8002d3a <xQueueSemaphoreTake+0x32>
 8002d3c:	f000 fe7e 	bl	8003a3c <xTaskGetSchedulerState>
 8002d40:	b950      	cbnz	r0, 8002d58 <xQueueSemaphoreTake+0x50>
 8002d42:	9d03      	ldr	r5, [sp, #12]
 8002d44:	b145      	cbz	r5, 8002d58 <xQueueSemaphoreTake+0x50>
 8002d46:	f04f 0350 	mov.w	r3, #80	; 0x50
 8002d4a:	f383 8811 	msr	BASEPRI, r3
 8002d4e:	f3bf 8f6f 	isb	sy
 8002d52:	f3bf 8f4f 	dsb	sy
 8002d56:	e7fe      	b.n	8002d56 <xQueueSemaphoreTake+0x4e>
 8002d58:	462f      	mov	r7, r5
 8002d5a:	f04f 0800 	mov.w	r8, #0
 8002d5e:	f8df 9184 	ldr.w	r9, [pc, #388]	; 8002ee4 <xQueueSemaphoreTake+0x1dc>
 8002d62:	e05e      	b.n	8002e22 <xQueueSemaphoreTake+0x11a>
 8002d64:	9b03      	ldr	r3, [sp, #12]
 8002d66:	b9db      	cbnz	r3, 8002da0 <xQueueSemaphoreTake+0x98>
 8002d68:	b145      	cbz	r5, 8002d7c <xQueueSemaphoreTake+0x74>
 8002d6a:	f04f 0350 	mov.w	r3, #80	; 0x50
 8002d6e:	f383 8811 	msr	BASEPRI, r3
 8002d72:	f3bf 8f6f 	isb	sy
 8002d76:	f3bf 8f4f 	dsb	sy
 8002d7a:	e7fe      	b.n	8002d7a <xQueueSemaphoreTake+0x72>
 8002d7c:	f001 f9ec 	bl	8004158 <vPortExitCritical>
 8002d80:	4620      	mov	r0, r4
 8002d82:	f001 fd45 	bl	8004810 <SEGGER_SYSVIEW_ShrinkId>
 8002d86:	4604      	mov	r4, r0
 8002d88:	4628      	mov	r0, r5
 8002d8a:	f001 fd41 	bl	8004810 <SEGGER_SYSVIEW_ShrinkId>
 8002d8e:	2301      	movs	r3, #1
 8002d90:	9300      	str	r3, [sp, #0]
 8002d92:	4602      	mov	r2, r0
 8002d94:	9b03      	ldr	r3, [sp, #12]
 8002d96:	4621      	mov	r1, r4
 8002d98:	205c      	movs	r0, #92	; 0x5c
 8002d9a:	f001 ff6f 	bl	8004c7c <SEGGER_SYSVIEW_RecordU32x4>
 8002d9e:	e06d      	b.n	8002e7c <xQueueSemaphoreTake+0x174>
 8002da0:	b917      	cbnz	r7, 8002da8 <xQueueSemaphoreTake+0xa0>
 8002da2:	a804      	add	r0, sp, #16
 8002da4:	f000 fde0 	bl	8003968 <vTaskInternalSetTimeOutState>
 8002da8:	f001 f9d6 	bl	8004158 <vPortExitCritical>
 8002dac:	f000 fbb2 	bl	8003514 <vTaskSuspendAll>
 8002db0:	f001 f9b0 	bl	8004114 <vPortEnterCritical>
 8002db4:	f894 3044 	ldrb.w	r3, [r4, #68]	; 0x44
 8002db8:	2bff      	cmp	r3, #255	; 0xff
 8002dba:	bf08      	it	eq
 8002dbc:	f884 8044 	strbeq.w	r8, [r4, #68]	; 0x44
 8002dc0:	f894 3045 	ldrb.w	r3, [r4, #69]	; 0x45
 8002dc4:	2bff      	cmp	r3, #255	; 0xff
 8002dc6:	bf08      	it	eq
 8002dc8:	f884 8045 	strbeq.w	r8, [r4, #69]	; 0x45
 8002dcc:	f001 f9c4 	bl	8004158 <vPortExitCritical>
 8002dd0:	a903      	add	r1, sp, #12
 8002dd2:	a804      	add	r0, sp, #16
 8002dd4:	f000 fdd4 	bl	8003980 <xTaskCheckForTimeOut>
 8002dd8:	2800      	cmp	r0, #0
 8002dda:	d159      	bne.n	8002e90 <xQueueSemaphoreTake+0x188>
 8002ddc:	4620      	mov	r0, r4
 8002dde:	f7ff fba7 	bl	8002530 <prvIsQueueEmpty>
 8002de2:	2800      	cmp	r0, #0
 8002de4:	d04e      	beq.n	8002e84 <xQueueSemaphoreTake+0x17c>
 8002de6:	6823      	ldr	r3, [r4, #0]
 8002de8:	b93b      	cbnz	r3, 8002dfa <xQueueSemaphoreTake+0xf2>
 8002dea:	f001 f993 	bl	8004114 <vPortEnterCritical>
 8002dee:	68a0      	ldr	r0, [r4, #8]
 8002df0:	f000 fe34 	bl	8003a5c <xTaskPriorityInherit>
 8002df4:	4605      	mov	r5, r0
 8002df6:	f001 f9af 	bl	8004158 <vPortExitCritical>
 8002dfa:	9903      	ldr	r1, [sp, #12]
 8002dfc:	f104 0024 	add.w	r0, r4, #36	; 0x24
 8002e00:	f000 fd32 	bl	8003868 <vTaskPlaceOnEventList>
 8002e04:	4620      	mov	r0, r4
 8002e06:	f7ff fbe6 	bl	80025d6 <prvUnlockQueue>
 8002e0a:	f000 fc2d 	bl	8003668 <xTaskResumeAll>
 8002e0e:	b938      	cbnz	r0, 8002e20 <xQueueSemaphoreTake+0x118>
 8002e10:	f04f 5380 	mov.w	r3, #268435456	; 0x10000000
 8002e14:	f8c9 3000 	str.w	r3, [r9]
 8002e18:	f3bf 8f4f 	dsb	sy
 8002e1c:	f3bf 8f6f 	isb	sy
 8002e20:	2701      	movs	r7, #1
 8002e22:	f001 f977 	bl	8004114 <vPortEnterCritical>
 8002e26:	6ba6      	ldr	r6, [r4, #56]	; 0x38
 8002e28:	2e00      	cmp	r6, #0
 8002e2a:	d09b      	beq.n	8002d64 <xQueueSemaphoreTake+0x5c>
 8002e2c:	4620      	mov	r0, r4
 8002e2e:	f001 fcef 	bl	8004810 <SEGGER_SYSVIEW_ShrinkId>
 8002e32:	4605      	mov	r5, r0
 8002e34:	2000      	movs	r0, #0
 8002e36:	f001 fceb 	bl	8004810 <SEGGER_SYSVIEW_ShrinkId>
 8002e3a:	2301      	movs	r3, #1
 8002e3c:	9300      	str	r3, [sp, #0]
 8002e3e:	4602      	mov	r2, r0
 8002e40:	9b03      	ldr	r3, [sp, #12]
 8002e42:	4629      	mov	r1, r5
 8002e44:	205c      	movs	r0, #92	; 0x5c
 8002e46:	f001 ff19 	bl	8004c7c <SEGGER_SYSVIEW_RecordU32x4>
 8002e4a:	6823      	ldr	r3, [r4, #0]
 8002e4c:	3e01      	subs	r6, #1
 8002e4e:	63a6      	str	r6, [r4, #56]	; 0x38
 8002e50:	b913      	cbnz	r3, 8002e58 <xQueueSemaphoreTake+0x150>
 8002e52:	f000 fee9 	bl	8003c28 <pvTaskIncrementMutexHeldCount>
 8002e56:	60a0      	str	r0, [r4, #8]
 8002e58:	6923      	ldr	r3, [r4, #16]
 8002e5a:	b163      	cbz	r3, 8002e76 <xQueueSemaphoreTake+0x16e>
 8002e5c:	f104 0010 	add.w	r0, r4, #16
 8002e60:	f000 fd3e 	bl	80038e0 <xTaskRemoveFromEventList>
 8002e64:	b138      	cbz	r0, 8002e76 <xQueueSemaphoreTake+0x16e>
 8002e66:	4b1f      	ldr	r3, [pc, #124]	; (8002ee4 <xQueueSemaphoreTake+0x1dc>)
 8002e68:	f04f 5280 	mov.w	r2, #268435456	; 0x10000000
 8002e6c:	601a      	str	r2, [r3, #0]
 8002e6e:	f3bf 8f4f 	dsb	sy
 8002e72:	f3bf 8f6f 	isb	sy
 8002e76:	f001 f96f 	bl	8004158 <vPortExitCritical>
 8002e7a:	2501      	movs	r5, #1
 8002e7c:	4628      	mov	r0, r5
 8002e7e:	b007      	add	sp, #28
 8002e80:	e8bd 83f0 	ldmia.w	sp!, {r4, r5, r6, r7, r8, r9, pc}
 8002e84:	4620      	mov	r0, r4
 8002e86:	f7ff fba6 	bl	80025d6 <prvUnlockQueue>
 8002e8a:	f000 fbed 	bl	8003668 <xTaskResumeAll>
 8002e8e:	e7c7      	b.n	8002e20 <xQueueSemaphoreTake+0x118>
 8002e90:	4620      	mov	r0, r4
 8002e92:	f7ff fba0 	bl	80025d6 <prvUnlockQueue>
 8002e96:	f000 fbe7 	bl	8003668 <xTaskResumeAll>
 8002e9a:	4620      	mov	r0, r4
 8002e9c:	f7ff fb48 	bl	8002530 <prvIsQueueEmpty>
 8002ea0:	2800      	cmp	r0, #0
 8002ea2:	d0bd      	beq.n	8002e20 <xQueueSemaphoreTake+0x118>
 8002ea4:	b165      	cbz	r5, 8002ec0 <xQueueSemaphoreTake+0x1b8>
 8002ea6:	f001 f935 	bl	8004114 <vPortEnterCritical>
 8002eaa:	6a61      	ldr	r1, [r4, #36]	; 0x24
 8002eac:	b119      	cbz	r1, 8002eb6 <xQueueSemaphoreTake+0x1ae>
 8002eae:	6b23      	ldr	r3, [r4, #48]	; 0x30
 8002eb0:	6819      	ldr	r1, [r3, #0]
 8002eb2:	f1c1 0138 	rsb	r1, r1, #56	; 0x38
 8002eb6:	68a0      	ldr	r0, [r4, #8]
 8002eb8:	f000 fe62 	bl	8003b80 <vTaskPriorityDisinheritAfterTimeout>
 8002ebc:	f001 f94c 	bl	8004158 <vPortExitCritical>
 8002ec0:	4620      	mov	r0, r4
 8002ec2:	f001 fca5 	bl	8004810 <SEGGER_SYSVIEW_ShrinkId>
 8002ec6:	4604      	mov	r4, r0
 8002ec8:	2000      	movs	r0, #0
 8002eca:	f001 fca1 	bl	8004810 <SEGGER_SYSVIEW_ShrinkId>
 8002ece:	2301      	movs	r3, #1
 8002ed0:	9300      	str	r3, [sp, #0]
 8002ed2:	4602      	mov	r2, r0
 8002ed4:	9b03      	ldr	r3, [sp, #12]
 8002ed6:	4621      	mov	r1, r4
 8002ed8:	205c      	movs	r0, #92	; 0x5c
 8002eda:	f001 fecf 	bl	8004c7c <SEGGER_SYSVIEW_RecordU32x4>
 8002ede:	2500      	movs	r5, #0
 8002ee0:	e7cc      	b.n	8002e7c <xQueueSemaphoreTake+0x174>
 8002ee2:	bf00      	nop
 8002ee4:	e000ed04 	.word	0xe000ed04

08002ee8 <xQueueReceiveFromISR>:
 8002ee8:	e92d 47f0 	stmdb	sp!, {r4, r5, r6, r7, r8, r9, sl, lr}
 8002eec:	4689      	mov	r9, r1
 8002eee:	4690      	mov	r8, r2
 8002ef0:	4605      	mov	r5, r0
 8002ef2:	b940      	cbnz	r0, 8002f06 <xQueueReceiveFromISR+0x1e>
 8002ef4:	f04f 0350 	mov.w	r3, #80	; 0x50
 8002ef8:	f383 8811 	msr	BASEPRI, r3
 8002efc:	f3bf 8f6f 	isb	sy
 8002f00:	f3bf 8f4f 	dsb	sy
 8002f04:	e7fe      	b.n	8002f04 <xQueueReceiveFromISR+0x1c>
 8002f06:	b951      	cbnz	r1, 8002f1e <xQueueReceiveFromISR+0x36>
 8002f08:	6c03      	ldr	r3, [r0, #64]	; 0x40
 8002f0a:	b143      	cbz	r3, 8002f1e <xQueueReceiveFromISR+0x36>
 8002f0c:	f04f 0350 	mov.w	r3, #80	; 0x50
 8002f10:	f383 8811 	msr	BASEPRI, r3
 8002f14:	f3bf 8f6f 	isb	sy
 8002f18:	f3bf 8f4f 	dsb	sy
 8002f1c:	e7fe      	b.n	8002f1c <xQueueReceiveFromISR+0x34>
 8002f1e:	f001 fa17 	bl	8004350 <vPortValidateInterruptPriority>
 8002f22:	f3ef 8711 	mrs	r7, BASEPRI
 8002f26:	f04f 0350 	mov.w	r3, #80	; 0x50
 8002f2a:	f383 8811 	msr	BASEPRI, r3
 8002f2e:	f3bf 8f6f 	isb	sy
 8002f32:	f3bf 8f4f 	dsb	sy
 8002f36:	6bac      	ldr	r4, [r5, #56]	; 0x38
 8002f38:	b384      	cbz	r4, 8002f9c <xQueueReceiveFromISR+0xb4>
 8002f3a:	4628      	mov	r0, r5
 8002f3c:	f895 6044 	ldrb.w	r6, [r5, #68]	; 0x44
 8002f40:	f001 fc66 	bl	8004810 <SEGGER_SYSVIEW_ShrinkId>
 8002f44:	4682      	mov	sl, r0
 8002f46:	4648      	mov	r0, r9
 8002f48:	f001 fc62 	bl	8004810 <SEGGER_SYSVIEW_ShrinkId>
 8002f4c:	4643      	mov	r3, r8
 8002f4e:	4602      	mov	r2, r0
 8002f50:	4651      	mov	r1, sl
 8002f52:	2062      	movs	r0, #98	; 0x62
 8002f54:	f001 fe58 	bl	8004c08 <SEGGER_SYSVIEW_RecordU32x3>
 8002f58:	b276      	sxtb	r6, r6
 8002f5a:	4649      	mov	r1, r9
 8002f5c:	4628      	mov	r0, r5
 8002f5e:	f7ff fb25 	bl	80025ac <prvCopyDataFromQueue>
 8002f62:	3c01      	subs	r4, #1
 8002f64:	1c73      	adds	r3, r6, #1
 8002f66:	63ac      	str	r4, [r5, #56]	; 0x38
 8002f68:	d113      	bne.n	8002f92 <xQueueReceiveFromISR+0xaa>
 8002f6a:	692b      	ldr	r3, [r5, #16]
 8002f6c:	b90b      	cbnz	r3, 8002f72 <xQueueReceiveFromISR+0x8a>
 8002f6e:	2001      	movs	r0, #1
 8002f70:	e00b      	b.n	8002f8a <xQueueReceiveFromISR+0xa2>
 8002f72:	f105 0010 	add.w	r0, r5, #16
 8002f76:	f000 fcb3 	bl	80038e0 <xTaskRemoveFromEventList>
 8002f7a:	2800      	cmp	r0, #0
 8002f7c:	d0f7      	beq.n	8002f6e <xQueueReceiveFromISR+0x86>
 8002f7e:	f1b8 0f00 	cmp.w	r8, #0
 8002f82:	d0f4      	beq.n	8002f6e <xQueueReceiveFromISR+0x86>
 8002f84:	2001      	movs	r0, #1
 8002f86:	f8c8 0000 	str.w	r0, [r8]
 8002f8a:	f387 8811 	msr	BASEPRI, r7
 8002f8e:	e8bd 87f0 	ldmia.w	sp!, {r4, r5, r6, r7, r8, r9, sl, pc}
 8002f92:	3601      	adds	r6, #1
 8002f94:	b276      	sxtb	r6, r6
 8002f96:	f885 6044 	strb.w	r6, [r5, #68]	; 0x44
 8002f9a:	e7e8      	b.n	8002f6e <xQueueReceiveFromISR+0x86>
 8002f9c:	4628      	mov	r0, r5
 8002f9e:	f001 fc37 	bl	8004810 <SEGGER_SYSVIEW_ShrinkId>
 8002fa2:	4605      	mov	r5, r0
 8002fa4:	4648      	mov	r0, r9
 8002fa6:	f001 fc33 	bl	8004810 <SEGGER_SYSVIEW_ShrinkId>
 8002faa:	4643      	mov	r3, r8
 8002fac:	4602      	mov	r2, r0
 8002fae:	4629      	mov	r1, r5
 8002fb0:	2062      	movs	r0, #98	; 0x62
 8002fb2:	f001 fe29 	bl	8004c08 <SEGGER_SYSVIEW_RecordU32x3>
 8002fb6:	4620      	mov	r0, r4
 8002fb8:	e7e7      	b.n	8002f8a <xQueueReceiveFromISR+0xa2>
	...

08002fbc <vQueueAddToRegistry>:
 8002fbc:	b538      	push	{r3, r4, r5, lr}
 8002fbe:	4c0c      	ldr	r4, [pc, #48]	; (8002ff0 <vQueueAddToRegistry+0x34>)
 8002fc0:	460d      	mov	r5, r1
 8002fc2:	2300      	movs	r3, #0
 8002fc4:	f854 1033 	ldr.w	r1, [r4, r3, lsl #3]
 8002fc8:	eb04 02c3 	add.w	r2, r4, r3, lsl #3
 8002fcc:	b959      	cbnz	r1, 8002fe6 <vQueueAddToRegistry+0x2a>
 8002fce:	6050      	str	r0, [r2, #4]
 8002fd0:	f844 5033 	str.w	r5, [r4, r3, lsl #3]
 8002fd4:	f001 fc1c 	bl	8004810 <SEGGER_SYSVIEW_ShrinkId>
 8002fd8:	462a      	mov	r2, r5
 8002fda:	4601      	mov	r1, r0
 8002fdc:	e8bd 4038 	ldmia.w	sp!, {r3, r4, r5, lr}
 8002fe0:	2071      	movs	r0, #113	; 0x71
 8002fe2:	f001 bdcb 	b.w	8004b7c <SEGGER_SYSVIEW_RecordU32x2>
 8002fe6:	3301      	adds	r3, #1
 8002fe8:	2b08      	cmp	r3, #8
 8002fea:	d1eb      	bne.n	8002fc4 <vQueueAddToRegistry+0x8>
 8002fec:	bd38      	pop	{r3, r4, r5, pc}
 8002fee:	bf00      	nop
 8002ff0:	200054e8 	.word	0x200054e8

08002ff4 <vQueueUnregisterQueue>:
 8002ff4:	b510      	push	{r4, lr}
 8002ff6:	4a08      	ldr	r2, [pc, #32]	; (8003018 <vQueueUnregisterQueue+0x24>)
 8002ff8:	2300      	movs	r3, #0
 8002ffa:	eb02 01c3 	add.w	r1, r2, r3, lsl #3
 8002ffe:	684c      	ldr	r4, [r1, #4]
 8003000:	4284      	cmp	r4, r0
 8003002:	d104      	bne.n	800300e <vQueueUnregisterQueue+0x1a>
 8003004:	2000      	movs	r0, #0
 8003006:	f842 0033 	str.w	r0, [r2, r3, lsl #3]
 800300a:	6048      	str	r0, [r1, #4]
 800300c:	bd10      	pop	{r4, pc}
 800300e:	3301      	adds	r3, #1
 8003010:	2b08      	cmp	r3, #8
 8003012:	d1f2      	bne.n	8002ffa <vQueueUnregisterQueue+0x6>
 8003014:	e7fa      	b.n	800300c <vQueueUnregisterQueue+0x18>
 8003016:	bf00      	nop
 8003018:	200054e8 	.word	0x200054e8

0800301c <vQueueDelete>:
 800301c:	b510      	push	{r4, lr}
 800301e:	4604      	mov	r4, r0
 8003020:	b940      	cbnz	r0, 8003034 <vQueueDelete+0x18>
 8003022:	f04f 0350 	mov.w	r3, #80	; 0x50
 8003026:	f383 8811 	msr	BASEPRI, r3
 800302a:	f3bf 8f6f 	isb	sy
 800302e:	f3bf 8f4f 	dsb	sy
 8003032:	e7fe      	b.n	8003032 <vQueueDelete+0x16>
 8003034:	f001 fbec 	bl	8004810 <SEGGER_SYSVIEW_ShrinkId>
 8003038:	4601      	mov	r1, r0
 800303a:	205f      	movs	r0, #95	; 0x5f
 800303c:	f001 fd7e 	bl	8004b3c <SEGGER_SYSVIEW_RecordU32>
 8003040:	4620      	mov	r0, r4
 8003042:	f7ff ffd7 	bl	8002ff4 <vQueueUnregisterQueue>
 8003046:	f894 3046 	ldrb.w	r3, [r4, #70]	; 0x46
 800304a:	b923      	cbnz	r3, 8003056 <vQueueDelete+0x3a>
 800304c:	4620      	mov	r0, r4
 800304e:	e8bd 4010 	ldmia.w	sp!, {r4, lr}
 8003052:	f001 ba5b 	b.w	800450c <vPortFree>
 8003056:	bd10      	pop	{r4, pc}

08003058 <vQueueWaitForMessageRestricted>:
 8003058:	b570      	push	{r4, r5, r6, lr}
 800305a:	4604      	mov	r4, r0
 800305c:	460d      	mov	r5, r1
 800305e:	4616      	mov	r6, r2
 8003060:	f001 f858 	bl	8004114 <vPortEnterCritical>
 8003064:	f894 3044 	ldrb.w	r3, [r4, #68]	; 0x44
 8003068:	2bff      	cmp	r3, #255	; 0xff
 800306a:	bf04      	itt	eq
 800306c:	2300      	moveq	r3, #0
 800306e:	f884 3044 	strbeq.w	r3, [r4, #68]	; 0x44
 8003072:	f894 3045 	ldrb.w	r3, [r4, #69]	; 0x45
 8003076:	2bff      	cmp	r3, #255	; 0xff
 8003078:	bf04      	itt	eq
 800307a:	2300      	moveq	r3, #0
 800307c:	f884 3045 	strbeq.w	r3, [r4, #69]	; 0x45
 8003080:	f001 f86a 	bl	8004158 <vPortExitCritical>
 8003084:	6ba3      	ldr	r3, [r4, #56]	; 0x38
 8003086:	b92b      	cbnz	r3, 8003094 <vQueueWaitForMessageRestricted+0x3c>
 8003088:	4632      	mov	r2, r6
 800308a:	4629      	mov	r1, r5
 800308c:	f104 0024 	add.w	r0, r4, #36	; 0x24
 8003090:	f000 fc04 	bl	800389c <vTaskPlaceOnEventListRestricted>
 8003094:	4620      	mov	r0, r4
 8003096:	e8bd 4070 	ldmia.w	sp!, {r4, r5, r6, lr}
 800309a:	f7ff ba9c 	b.w	80025d6 <prvUnlockQueue>
	...

080030a0 <prvAddNewTaskToReadyList>:
 80030a0:	e92d 41f3 	stmdb	sp!, {r0, r1, r4, r5, r6, r7, r8, lr}
 80030a4:	4604      	mov	r4, r0
 80030a6:	f001 f835 	bl	8004114 <vPortEnterCritical>
 80030aa:	4b37      	ldr	r3, [pc, #220]	; (8003188 <prvAddNewTaskToReadyList+0xe8>)
 80030ac:	4d37      	ldr	r5, [pc, #220]	; (800318c <prvAddNewTaskToReadyList+0xec>)
 80030ae:	681a      	ldr	r2, [r3, #0]
 80030b0:	4f37      	ldr	r7, [pc, #220]	; (8003190 <prvAddNewTaskToReadyList+0xf0>)
 80030b2:	3201      	adds	r2, #1
 80030b4:	601a      	str	r2, [r3, #0]
 80030b6:	682e      	ldr	r6, [r5, #0]
 80030b8:	2e00      	cmp	r6, #0
 80030ba:	d15a      	bne.n	8003172 <prvAddNewTaskToReadyList+0xd2>
 80030bc:	602c      	str	r4, [r5, #0]
 80030be:	681b      	ldr	r3, [r3, #0]
 80030c0:	2b01      	cmp	r3, #1
 80030c2:	d11f      	bne.n	8003104 <prvAddNewTaskToReadyList+0x64>
 80030c4:	f04f 0814 	mov.w	r8, #20
 80030c8:	fb08 7006 	mla	r0, r8, r6, r7
 80030cc:	3601      	adds	r6, #1
 80030ce:	f7ff f9ed 	bl	80024ac <vListInitialise>
 80030d2:	2e38      	cmp	r6, #56	; 0x38
 80030d4:	d1f8      	bne.n	80030c8 <prvAddNewTaskToReadyList+0x28>
 80030d6:	f8df 80e4 	ldr.w	r8, [pc, #228]	; 80031bc <prvAddNewTaskToReadyList+0x11c>
 80030da:	4e2e      	ldr	r6, [pc, #184]	; (8003194 <prvAddNewTaskToReadyList+0xf4>)
 80030dc:	4640      	mov	r0, r8
 80030de:	f7ff f9e5 	bl	80024ac <vListInitialise>
 80030e2:	4630      	mov	r0, r6
 80030e4:	f7ff f9e2 	bl	80024ac <vListInitialise>
 80030e8:	482b      	ldr	r0, [pc, #172]	; (8003198 <prvAddNewTaskToReadyList+0xf8>)
 80030ea:	f7ff f9df 	bl	80024ac <vListInitialise>
 80030ee:	482b      	ldr	r0, [pc, #172]	; (800319c <prvAddNewTaskToReadyList+0xfc>)
 80030f0:	f7ff f9dc 	bl	80024ac <vListInitialise>
 80030f4:	482a      	ldr	r0, [pc, #168]	; (80031a0 <prvAddNewTaskToReadyList+0x100>)
 80030f6:	f7ff f9d9 	bl	80024ac <vListInitialise>
 80030fa:	4b2a      	ldr	r3, [pc, #168]	; (80031a4 <prvAddNewTaskToReadyList+0x104>)
 80030fc:	f8c3 8000 	str.w	r8, [r3]
 8003100:	4b29      	ldr	r3, [pc, #164]	; (80031a8 <prvAddNewTaskToReadyList+0x108>)
 8003102:	601e      	str	r6, [r3, #0]
 8003104:	4a29      	ldr	r2, [pc, #164]	; (80031ac <prvAddNewTaskToReadyList+0x10c>)
 8003106:	6813      	ldr	r3, [r2, #0]
 8003108:	3301      	adds	r3, #1
 800310a:	6463      	str	r3, [r4, #68]	; 0x44
 800310c:	4620      	mov	r0, r4
 800310e:	6013      	str	r3, [r2, #0]
 8003110:	f001 ff24 	bl	8004f5c <SEGGER_SYSVIEW_OnTaskCreate>
 8003114:	6b23      	ldr	r3, [r4, #48]	; 0x30
 8003116:	6822      	ldr	r2, [r4, #0]
 8003118:	1ad2      	subs	r2, r2, r3
 800311a:	f104 0134 	add.w	r1, r4, #52	; 0x34
 800311e:	9200      	str	r2, [sp, #0]
 8003120:	4620      	mov	r0, r4
 8003122:	6ae2      	ldr	r2, [r4, #44]	; 0x2c
 8003124:	f002 f832 	bl	800518c <SYSVIEW_AddTask>
 8003128:	4620      	mov	r0, r4
 800312a:	f001 ff5f 	bl	8004fec <SEGGER_SYSVIEW_OnTaskStartReady>
 800312e:	4a20      	ldr	r2, [pc, #128]	; (80031b0 <prvAddNewTaskToReadyList+0x110>)
 8003130:	6ae3      	ldr	r3, [r4, #44]	; 0x2c
 8003132:	6811      	ldr	r1, [r2, #0]
 8003134:	2014      	movs	r0, #20
 8003136:	428b      	cmp	r3, r1
 8003138:	fb00 7003 	mla	r0, r0, r3, r7
 800313c:	f104 0104 	add.w	r1, r4, #4
 8003140:	bf88      	it	hi
 8003142:	6013      	strhi	r3, [r2, #0]
 8003144:	f7ff f9c0 	bl	80024c8 <vListInsertEnd>
 8003148:	f001 f806 	bl	8004158 <vPortExitCritical>
 800314c:	4b19      	ldr	r3, [pc, #100]	; (80031b4 <prvAddNewTaskToReadyList+0x114>)
 800314e:	681b      	ldr	r3, [r3, #0]
 8003150:	b163      	cbz	r3, 800316c <prvAddNewTaskToReadyList+0xcc>
 8003152:	682b      	ldr	r3, [r5, #0]
 8003154:	6ada      	ldr	r2, [r3, #44]	; 0x2c
 8003156:	6ae3      	ldr	r3, [r4, #44]	; 0x2c
 8003158:	429a      	cmp	r2, r3
 800315a:	d207      	bcs.n	800316c <prvAddNewTaskToReadyList+0xcc>
 800315c:	4b16      	ldr	r3, [pc, #88]	; (80031b8 <prvAddNewTaskToReadyList+0x118>)
 800315e:	f04f 5280 	mov.w	r2, #268435456	; 0x10000000
 8003162:	601a      	str	r2, [r3, #0]
 8003164:	f3bf 8f4f 	dsb	sy
 8003168:	f3bf 8f6f 	isb	sy
 800316c:	b002      	add	sp, #8
 800316e:	e8bd 81f0 	ldmia.w	sp!, {r4, r5, r6, r7, r8, pc}
 8003172:	4b10      	ldr	r3, [pc, #64]	; (80031b4 <prvAddNewTaskToReadyList+0x114>)
 8003174:	681b      	ldr	r3, [r3, #0]
 8003176:	2b00      	cmp	r3, #0
 8003178:	d1c4      	bne.n	8003104 <prvAddNewTaskToReadyList+0x64>
 800317a:	682b      	ldr	r3, [r5, #0]
 800317c:	6ada      	ldr	r2, [r3, #44]	; 0x2c
 800317e:	6ae3      	ldr	r3, [r4, #44]	; 0x2c
 8003180:	429a      	cmp	r2, r3
 8003182:	bf98      	it	ls
 8003184:	602c      	strls	r4, [r5, #0]
 8003186:	e7bd      	b.n	8003104 <prvAddNewTaskToReadyList+0x64>
 8003188:	20000b64 	.word	0x20000b64
 800318c:	200006f4 	.word	0x200006f4
 8003190:	20000700 	.word	0x20000700
 8003194:	20000b90 	.word	0x20000b90
 8003198:	20000bac 	.word	0x20000bac
 800319c:	20000bd8 	.word	0x20000bd8
 80031a0:	20000bc4 	.word	0x20000bc4
 80031a4:	200006f8 	.word	0x200006f8
 80031a8:	200006fc 	.word	0x200006fc
 80031ac:	20000b74 	.word	0x20000b74
 80031b0:	20000b78 	.word	0x20000b78
 80031b4:	20000bc0 	.word	0x20000bc0
 80031b8:	e000ed04 	.word	0xe000ed04
 80031bc:	20000b7c 	.word	0x20000b7c

080031c0 <prvDeleteTCB>:
 80031c0:	b510      	push	{r4, lr}
 80031c2:	f890 305d 	ldrb.w	r3, [r0, #93]	; 0x5d
 80031c6:	4604      	mov	r4, r0
 80031c8:	b93b      	cbnz	r3, 80031da <prvDeleteTCB+0x1a>
 80031ca:	6b00      	ldr	r0, [r0, #48]	; 0x30
 80031cc:	f001 f99e 	bl	800450c <vPortFree>
 80031d0:	4620      	mov	r0, r4
 80031d2:	e8bd 4010 	ldmia.w	sp!, {r4, lr}
 80031d6:	f001 b999 	b.w	800450c <vPortFree>
 80031da:	2b01      	cmp	r3, #1
 80031dc:	d0f9      	beq.n	80031d2 <prvDeleteTCB+0x12>
 80031de:	2b02      	cmp	r3, #2
 80031e0:	d008      	beq.n	80031f4 <prvDeleteTCB+0x34>
 80031e2:	f04f 0350 	mov.w	r3, #80	; 0x50
 80031e6:	f383 8811 	msr	BASEPRI, r3
 80031ea:	f3bf 8f6f 	isb	sy
 80031ee:	f3bf 8f4f 	dsb	sy
 80031f2:	e7fe      	b.n	80031f2 <prvDeleteTCB+0x32>
 80031f4:	bd10      	pop	{r4, pc}
	...

080031f8 <prvIdleTask>:
 80031f8:	b580      	push	{r7, lr}
 80031fa:	f8df 805c 	ldr.w	r8, [pc, #92]	; 8003258 <prvIdleTask+0x60>
 80031fe:	4f12      	ldr	r7, [pc, #72]	; (8003248 <prvIdleTask+0x50>)
 8003200:	4c12      	ldr	r4, [pc, #72]	; (800324c <prvIdleTask+0x54>)
 8003202:	4d13      	ldr	r5, [pc, #76]	; (8003250 <prvIdleTask+0x58>)
 8003204:	6823      	ldr	r3, [r4, #0]
 8003206:	b963      	cbnz	r3, 8003222 <prvIdleTask+0x2a>
 8003208:	4b12      	ldr	r3, [pc, #72]	; (8003254 <prvIdleTask+0x5c>)
 800320a:	681b      	ldr	r3, [r3, #0]
 800320c:	2b01      	cmp	r3, #1
 800320e:	d9f8      	bls.n	8003202 <prvIdleTask+0xa>
 8003210:	f04f 5380 	mov.w	r3, #268435456	; 0x10000000
 8003214:	f8c8 3000 	str.w	r3, [r8]
 8003218:	f3bf 8f4f 	dsb	sy
 800321c:	f3bf 8f6f 	isb	sy
 8003220:	e7ee      	b.n	8003200 <prvIdleTask+0x8>
 8003222:	f000 ff77 	bl	8004114 <vPortEnterCritical>
 8003226:	68fb      	ldr	r3, [r7, #12]
 8003228:	68de      	ldr	r6, [r3, #12]
 800322a:	1d30      	adds	r0, r6, #4
 800322c:	f7ff f96f 	bl	800250e <uxListRemove>
 8003230:	682b      	ldr	r3, [r5, #0]
 8003232:	3b01      	subs	r3, #1
 8003234:	602b      	str	r3, [r5, #0]
 8003236:	6823      	ldr	r3, [r4, #0]
 8003238:	3b01      	subs	r3, #1
 800323a:	6023      	str	r3, [r4, #0]
 800323c:	f000 ff8c 	bl	8004158 <vPortExitCritical>
 8003240:	4630      	mov	r0, r6
 8003242:	f7ff ffbd 	bl	80031c0 <prvDeleteTCB>
 8003246:	e7dd      	b.n	8003204 <prvIdleTask+0xc>
 8003248:	20000bd8 	.word	0x20000bd8
 800324c:	20000b68 	.word	0x20000b68
 8003250:	20000b64 	.word	0x20000b64
 8003254:	20000700 	.word	0x20000700
 8003258:	e000ed04 	.word	0xe000ed04

0800325c <prvResetNextTaskUnblockTime>:
 800325c:	4a06      	ldr	r2, [pc, #24]	; (8003278 <prvResetNextTaskUnblockTime+0x1c>)
 800325e:	6813      	ldr	r3, [r2, #0]
 8003260:	6819      	ldr	r1, [r3, #0]
 8003262:	4b06      	ldr	r3, [pc, #24]	; (800327c <prvResetNextTaskUnblockTime+0x20>)
 8003264:	b919      	cbnz	r1, 800326e <prvResetNextTaskUnblockTime+0x12>
 8003266:	f04f 32ff 	mov.w	r2, #4294967295
 800326a:	601a      	str	r2, [r3, #0]
 800326c:	4770      	bx	lr
 800326e:	6812      	ldr	r2, [r2, #0]
 8003270:	68d2      	ldr	r2, [r2, #12]
 8003272:	68d2      	ldr	r2, [r2, #12]
 8003274:	6852      	ldr	r2, [r2, #4]
 8003276:	e7f8      	b.n	800326a <prvResetNextTaskUnblockTime+0xe>
 8003278:	200006f8 	.word	0x200006f8
 800327c:	20000ba4 	.word	0x20000ba4

08003280 <prvInitialiseNewTask.isra.2>:
 8003280:	e92d 47f0 	stmdb	sp!, {r4, r5, r6, r7, r8, r9, sl, lr}
 8003284:	e9dd 6409 	ldrd	r6, r4, [sp, #36]	; 0x24
 8003288:	ea4f 0982 	mov.w	r9, r2, lsl #2
 800328c:	464a      	mov	r2, r9
 800328e:	4607      	mov	r7, r0
 8003290:	460d      	mov	r5, r1
 8003292:	6b20      	ldr	r0, [r4, #48]	; 0x30
 8003294:	21a5      	movs	r1, #165	; 0xa5
 8003296:	4698      	mov	r8, r3
 8003298:	f002 f80c 	bl	80052b4 <memset>
 800329c:	6b23      	ldr	r3, [r4, #48]	; 0x30
 800329e:	f1a9 0904 	sub.w	r9, r9, #4
 80032a2:	4499      	add	r9, r3
 80032a4:	f029 0907 	bic.w	r9, r9, #7
 80032a8:	2d00      	cmp	r5, #0
 80032aa:	d036      	beq.n	800331a <prvInitialiseNewTask.isra.2+0x9a>
 80032ac:	1e6b      	subs	r3, r5, #1
 80032ae:	f104 0234 	add.w	r2, r4, #52	; 0x34
 80032b2:	350f      	adds	r5, #15
 80032b4:	f813 1f01 	ldrb.w	r1, [r3, #1]!
 80032b8:	f802 1b01 	strb.w	r1, [r2], #1
 80032bc:	7819      	ldrb	r1, [r3, #0]
 80032be:	b109      	cbz	r1, 80032c4 <prvInitialiseNewTask.isra.2+0x44>
 80032c0:	42ab      	cmp	r3, r5
 80032c2:	d1f7      	bne.n	80032b4 <prvInitialiseNewTask.isra.2+0x34>
 80032c4:	2300      	movs	r3, #0
 80032c6:	f884 3043 	strb.w	r3, [r4, #67]	; 0x43
 80032ca:	9d08      	ldr	r5, [sp, #32]
 80032cc:	2d37      	cmp	r5, #55	; 0x37
 80032ce:	bf28      	it	cs
 80032d0:	2537      	movcs	r5, #55	; 0x37
 80032d2:	f04f 0a00 	mov.w	sl, #0
 80032d6:	62e5      	str	r5, [r4, #44]	; 0x2c
 80032d8:	64e5      	str	r5, [r4, #76]	; 0x4c
 80032da:	1d20      	adds	r0, r4, #4
 80032dc:	f8c4 a050 	str.w	sl, [r4, #80]	; 0x50
 80032e0:	f7ff f8ef 	bl	80024c2 <vListInitialiseItem>
 80032e4:	f1c5 0538 	rsb	r5, r5, #56	; 0x38
 80032e8:	f104 0018 	add.w	r0, r4, #24
 80032ec:	f7ff f8e9 	bl	80024c2 <vListInitialiseItem>
 80032f0:	f8c4 a058 	str.w	sl, [r4, #88]	; 0x58
 80032f4:	6124      	str	r4, [r4, #16]
 80032f6:	61a5      	str	r5, [r4, #24]
 80032f8:	6264      	str	r4, [r4, #36]	; 0x24
 80032fa:	f8c4 a054 	str.w	sl, [r4, #84]	; 0x54
 80032fe:	f884 a05c 	strb.w	sl, [r4, #92]	; 0x5c
 8003302:	f884 a05e 	strb.w	sl, [r4, #94]	; 0x5e
 8003306:	4642      	mov	r2, r8
 8003308:	4639      	mov	r1, r7
 800330a:	4648      	mov	r0, r9
 800330c:	f000 fed6 	bl	80040bc <pxPortInitialiseStack>
 8003310:	6020      	str	r0, [r4, #0]
 8003312:	b106      	cbz	r6, 8003316 <prvInitialiseNewTask.isra.2+0x96>
 8003314:	6034      	str	r4, [r6, #0]
 8003316:	e8bd 87f0 	ldmia.w	sp!, {r4, r5, r6, r7, r8, r9, sl, pc}
 800331a:	f884 5034 	strb.w	r5, [r4, #52]	; 0x34
 800331e:	e7d4      	b.n	80032ca <prvInitialiseNewTask.isra.2+0x4a>

08003320 <prvAddCurrentTaskToDelayedList>:
 8003320:	b5f8      	push	{r3, r4, r5, r6, r7, lr}
 8003322:	4e18      	ldr	r6, [pc, #96]	; (8003384 <prvAddCurrentTaskToDelayedList+0x64>)
 8003324:	4b18      	ldr	r3, [pc, #96]	; (8003388 <prvAddCurrentTaskToDelayedList+0x68>)
 8003326:	4605      	mov	r5, r0
 8003328:	681c      	ldr	r4, [r3, #0]
 800332a:	6833      	ldr	r3, [r6, #0]
 800332c:	6830      	ldr	r0, [r6, #0]
 800332e:	2200      	movs	r2, #0
 8003330:	f883 205e 	strb.w	r2, [r3, #94]	; 0x5e
 8003334:	3004      	adds	r0, #4
 8003336:	460f      	mov	r7, r1
 8003338:	f7ff f8e9 	bl	800250e <uxListRemove>
 800333c:	1c6b      	adds	r3, r5, #1
 800333e:	4633      	mov	r3, r6
 8003340:	d107      	bne.n	8003352 <prvAddCurrentTaskToDelayedList+0x32>
 8003342:	b137      	cbz	r7, 8003352 <prvAddCurrentTaskToDelayedList+0x32>
 8003344:	6831      	ldr	r1, [r6, #0]
 8003346:	4811      	ldr	r0, [pc, #68]	; (800338c <prvAddCurrentTaskToDelayedList+0x6c>)
 8003348:	3104      	adds	r1, #4
 800334a:	e8bd 40f8 	ldmia.w	sp!, {r3, r4, r5, r6, r7, lr}
 800334e:	f7ff b8bb 	b.w	80024c8 <vListInsertEnd>
 8003352:	681a      	ldr	r2, [r3, #0]
 8003354:	1964      	adds	r4, r4, r5
 8003356:	6054      	str	r4, [r2, #4]
 8003358:	d307      	bcc.n	800336a <prvAddCurrentTaskToDelayedList+0x4a>
 800335a:	4a0d      	ldr	r2, [pc, #52]	; (8003390 <prvAddCurrentTaskToDelayedList+0x70>)
 800335c:	6810      	ldr	r0, [r2, #0]
 800335e:	6819      	ldr	r1, [r3, #0]
 8003360:	e8bd 40f8 	ldmia.w	sp!, {r3, r4, r5, r6, r7, lr}
 8003364:	3104      	adds	r1, #4
 8003366:	f7ff b8bb 	b.w	80024e0 <vListInsert>
 800336a:	4a0a      	ldr	r2, [pc, #40]	; (8003394 <prvAddCurrentTaskToDelayedList+0x74>)
 800336c:	6810      	ldr	r0, [r2, #0]
 800336e:	6819      	ldr	r1, [r3, #0]
 8003370:	3104      	adds	r1, #4
 8003372:	f7ff f8b5 	bl	80024e0 <vListInsert>
 8003376:	4b08      	ldr	r3, [pc, #32]	; (8003398 <prvAddCurrentTaskToDelayedList+0x78>)
 8003378:	681a      	ldr	r2, [r3, #0]
 800337a:	42a2      	cmp	r2, r4
 800337c:	bf88      	it	hi
 800337e:	601c      	strhi	r4, [r3, #0]
 8003380:	bdf8      	pop	{r3, r4, r5, r6, r7, pc}
 8003382:	bf00      	nop
 8003384:	200006f4 	.word	0x200006f4
 8003388:	20000bec 	.word	0x20000bec
 800338c:	20000bc4 	.word	0x20000bc4
 8003390:	200006fc 	.word	0x200006fc
 8003394:	200006f8 	.word	0x200006f8
 8003398:	20000ba4 	.word	0x20000ba4

0800339c <xTaskCreateStatic>:
 800339c:	b570      	push	{r4, r5, r6, lr}
 800339e:	b086      	sub	sp, #24
 80033a0:	e9dd 540b 	ldrd	r5, r4, [sp, #44]	; 0x2c
 80033a4:	b945      	cbnz	r5, 80033b8 <xTaskCreateStatic+0x1c>
 80033a6:	f04f 0350 	mov.w	r3, #80	; 0x50
 80033aa:	f383 8811 	msr	BASEPRI, r3
 80033ae:	f3bf 8f6f 	isb	sy
 80033b2:	f3bf 8f4f 	dsb	sy
 80033b6:	e7fe      	b.n	80033b6 <xTaskCreateStatic+0x1a>
 80033b8:	b944      	cbnz	r4, 80033cc <xTaskCreateStatic+0x30>
 80033ba:	f04f 0350 	mov.w	r3, #80	; 0x50
 80033be:	f383 8811 	msr	BASEPRI, r3
 80033c2:	f3bf 8f6f 	isb	sy
 80033c6:	f3bf 8f4f 	dsb	sy
 80033ca:	e7fe      	b.n	80033ca <xTaskCreateStatic+0x2e>
 80033cc:	2660      	movs	r6, #96	; 0x60
 80033ce:	9605      	str	r6, [sp, #20]
 80033d0:	9e05      	ldr	r6, [sp, #20]
 80033d2:	2e60      	cmp	r6, #96	; 0x60
 80033d4:	d008      	beq.n	80033e8 <xTaskCreateStatic+0x4c>
 80033d6:	f04f 0350 	mov.w	r3, #80	; 0x50
 80033da:	f383 8811 	msr	BASEPRI, r3
 80033de:	f3bf 8f6f 	isb	sy
 80033e2:	f3bf 8f4f 	dsb	sy
 80033e6:	e7fe      	b.n	80033e6 <xTaskCreateStatic+0x4a>
 80033e8:	6325      	str	r5, [r4, #48]	; 0x30
 80033ea:	2502      	movs	r5, #2
 80033ec:	f884 505d 	strb.w	r5, [r4, #93]	; 0x5d
 80033f0:	ad04      	add	r5, sp, #16
 80033f2:	9501      	str	r5, [sp, #4]
 80033f4:	9d0a      	ldr	r5, [sp, #40]	; 0x28
 80033f6:	9402      	str	r4, [sp, #8]
 80033f8:	9500      	str	r5, [sp, #0]
 80033fa:	9e05      	ldr	r6, [sp, #20]
 80033fc:	f7ff ff40 	bl	8003280 <prvInitialiseNewTask.isra.2>
 8003400:	4620      	mov	r0, r4
 8003402:	f7ff fe4d 	bl	80030a0 <prvAddNewTaskToReadyList>
 8003406:	9804      	ldr	r0, [sp, #16]
 8003408:	b006      	add	sp, #24
 800340a:	bd70      	pop	{r4, r5, r6, pc}

0800340c <xTaskCreate>:
 800340c:	e92d 43f0 	stmdb	sp!, {r4, r5, r6, r7, r8, r9, lr}
 8003410:	4607      	mov	r7, r0
 8003412:	b085      	sub	sp, #20
 8003414:	0090      	lsls	r0, r2, #2
 8003416:	4688      	mov	r8, r1
 8003418:	4616      	mov	r6, r2
 800341a:	4699      	mov	r9, r3
 800341c:	f000 ffea 	bl	80043f4 <pvPortMalloc>
 8003420:	4605      	mov	r5, r0
 8003422:	b1e8      	cbz	r0, 8003460 <xTaskCreate+0x54>
 8003424:	2060      	movs	r0, #96	; 0x60
 8003426:	f000 ffe5 	bl	80043f4 <pvPortMalloc>
 800342a:	4604      	mov	r4, r0
 800342c:	b1a8      	cbz	r0, 800345a <xTaskCreate+0x4e>
 800342e:	2300      	movs	r3, #0
 8003430:	f880 305d 	strb.w	r3, [r0, #93]	; 0x5d
 8003434:	9b0d      	ldr	r3, [sp, #52]	; 0x34
 8003436:	6305      	str	r5, [r0, #48]	; 0x30
 8003438:	9301      	str	r3, [sp, #4]
 800343a:	9b0c      	ldr	r3, [sp, #48]	; 0x30
 800343c:	9002      	str	r0, [sp, #8]
 800343e:	9300      	str	r3, [sp, #0]
 8003440:	4632      	mov	r2, r6
 8003442:	464b      	mov	r3, r9
 8003444:	4641      	mov	r1, r8
 8003446:	4638      	mov	r0, r7
 8003448:	f7ff ff1a 	bl	8003280 <prvInitialiseNewTask.isra.2>
 800344c:	4620      	mov	r0, r4
 800344e:	f7ff fe27 	bl	80030a0 <prvAddNewTaskToReadyList>
 8003452:	2001      	movs	r0, #1
 8003454:	b005      	add	sp, #20
 8003456:	e8bd 83f0 	ldmia.w	sp!, {r4, r5, r6, r7, r8, r9, pc}
 800345a:	4628      	mov	r0, r5
 800345c:	f001 f856 	bl	800450c <vPortFree>
 8003460:	f04f 30ff 	mov.w	r0, #4294967295
 8003464:	e7f6      	b.n	8003454 <xTaskCreate+0x48>
	...

08003468 <vTaskStartScheduler>:
 8003468:	b510      	push	{r4, lr}
 800346a:	b088      	sub	sp, #32
 800346c:	2400      	movs	r4, #0
 800346e:	aa07      	add	r2, sp, #28
 8003470:	a906      	add	r1, sp, #24
 8003472:	a805      	add	r0, sp, #20
 8003474:	e9cd 4405 	strd	r4, r4, [sp, #20]
 8003478:	f7ff f800 	bl	800247c <vApplicationGetIdleTaskMemory>
 800347c:	9b05      	ldr	r3, [sp, #20]
 800347e:	9302      	str	r3, [sp, #8]
 8003480:	9b06      	ldr	r3, [sp, #24]
 8003482:	9a07      	ldr	r2, [sp, #28]
 8003484:	491d      	ldr	r1, [pc, #116]	; (80034fc <vTaskStartScheduler+0x94>)
 8003486:	481e      	ldr	r0, [pc, #120]	; (8003500 <vTaskStartScheduler+0x98>)
 8003488:	e9cd 4300 	strd	r4, r3, [sp]
 800348c:	4623      	mov	r3, r4
 800348e:	f7ff ff85 	bl	800339c <xTaskCreateStatic>
 8003492:	b310      	cbz	r0, 80034da <vTaskStartScheduler+0x72>
 8003494:	f000 fc26 	bl	8003ce4 <xTimerCreateTimerTask>
 8003498:	2801      	cmp	r0, #1
 800349a:	d123      	bne.n	80034e4 <vTaskStartScheduler+0x7c>
 800349c:	f04f 0350 	mov.w	r3, #80	; 0x50
 80034a0:	f383 8811 	msr	BASEPRI, r3
 80034a4:	f3bf 8f6f 	isb	sy
 80034a8:	f3bf 8f4f 	dsb	sy
 80034ac:	4b15      	ldr	r3, [pc, #84]	; (8003504 <vTaskStartScheduler+0x9c>)
 80034ae:	f04f 32ff 	mov.w	r2, #4294967295
 80034b2:	601a      	str	r2, [r3, #0]
 80034b4:	4b14      	ldr	r3, [pc, #80]	; (8003508 <vTaskStartScheduler+0xa0>)
 80034b6:	6018      	str	r0, [r3, #0]
 80034b8:	4b14      	ldr	r3, [pc, #80]	; (800350c <vTaskStartScheduler+0xa4>)
 80034ba:	601c      	str	r4, [r3, #0]
 80034bc:	4c14      	ldr	r4, [pc, #80]	; (8003510 <vTaskStartScheduler+0xa8>)
 80034be:	f7fd f84d 	bl	800055c <configureTimerForRunTimeStats>
 80034c2:	6820      	ldr	r0, [r4, #0]
 80034c4:	490d      	ldr	r1, [pc, #52]	; (80034fc <vTaskStartScheduler+0x94>)
 80034c6:	2205      	movs	r2, #5
 80034c8:	3034      	adds	r0, #52	; 0x34
 80034ca:	f001 fed9 	bl	8005280 <memcmp>
 80034ce:	b130      	cbz	r0, 80034de <vTaskStartScheduler+0x76>
 80034d0:	6820      	ldr	r0, [r4, #0]
 80034d2:	f001 fd67 	bl	8004fa4 <SEGGER_SYSVIEW_OnTaskStartExec>
 80034d6:	f000 feb5 	bl	8004244 <xPortStartScheduler>
 80034da:	b008      	add	sp, #32
 80034dc:	bd10      	pop	{r4, pc}
 80034de:	f001 fd2b 	bl	8004f38 <SEGGER_SYSVIEW_OnIdle>
 80034e2:	e7f8      	b.n	80034d6 <vTaskStartScheduler+0x6e>
 80034e4:	3001      	adds	r0, #1
 80034e6:	d1f8      	bne.n	80034da <vTaskStartScheduler+0x72>
 80034e8:	f04f 0350 	mov.w	r3, #80	; 0x50
 80034ec:	f383 8811 	msr	BASEPRI, r3
 80034f0:	f3bf 8f6f 	isb	sy
 80034f4:	f3bf 8f4f 	dsb	sy
 80034f8:	e7fe      	b.n	80034f8 <vTaskStartScheduler+0x90>
 80034fa:	bf00      	nop
 80034fc:	080053b4 	.word	0x080053b4
 8003500:	080031f9 	.word	0x080031f9
 8003504:	20000ba4 	.word	0x20000ba4
 8003508:	20000bc0 	.word	0x20000bc0
 800350c:	20000bec 	.word	0x20000bec
 8003510:	200006f4 	.word	0x200006f4

08003514 <vTaskSuspendAll>:
 8003514:	4a02      	ldr	r2, [pc, #8]	; (8003520 <vTaskSuspendAll+0xc>)
 8003516:	6813      	ldr	r3, [r2, #0]
 8003518:	3301      	adds	r3, #1
 800351a:	6013      	str	r3, [r2, #0]
 800351c:	4770      	bx	lr
 800351e:	bf00      	nop
 8003520:	20000b70 	.word	0x20000b70

08003524 <xTaskGetTickCount>:
 8003524:	4b01      	ldr	r3, [pc, #4]	; (800352c <xTaskGetTickCount+0x8>)
 8003526:	6818      	ldr	r0, [r3, #0]
 8003528:	4770      	bx	lr
 800352a:	bf00      	nop
 800352c:	20000bec 	.word	0x20000bec

08003530 <xTaskGetTickCountFromISR>:
 8003530:	b508      	push	{r3, lr}
 8003532:	f000 ff0d 	bl	8004350 <vPortValidateInterruptPriority>
 8003536:	4b01      	ldr	r3, [pc, #4]	; (800353c <xTaskGetTickCountFromISR+0xc>)
 8003538:	6818      	ldr	r0, [r3, #0]
 800353a:	bd08      	pop	{r3, pc}
 800353c:	20000bec 	.word	0x20000bec

08003540 <xTaskIncrementTick>:
 8003540:	e92d 4ff8 	stmdb	sp!, {r3, r4, r5, r6, r7, r8, r9, sl, fp, lr}
 8003544:	4b3d      	ldr	r3, [pc, #244]	; (800363c <xTaskIncrementTick+0xfc>)
 8003546:	681b      	ldr	r3, [r3, #0]
 8003548:	2b00      	cmp	r3, #0
 800354a:	d16f      	bne.n	800362c <xTaskIncrementTick+0xec>
 800354c:	4b3c      	ldr	r3, [pc, #240]	; (8003640 <xTaskIncrementTick+0x100>)
 800354e:	681c      	ldr	r4, [r3, #0]
 8003550:	3401      	adds	r4, #1
 8003552:	601c      	str	r4, [r3, #0]
 8003554:	b9bc      	cbnz	r4, 8003586 <xTaskIncrementTick+0x46>
 8003556:	4b3b      	ldr	r3, [pc, #236]	; (8003644 <xTaskIncrementTick+0x104>)
 8003558:	681a      	ldr	r2, [r3, #0]
 800355a:	6812      	ldr	r2, [r2, #0]
 800355c:	b142      	cbz	r2, 8003570 <xTaskIncrementTick+0x30>
 800355e:	f04f 0350 	mov.w	r3, #80	; 0x50
 8003562:	f383 8811 	msr	BASEPRI, r3
 8003566:	f3bf 8f6f 	isb	sy
 800356a:	f3bf 8f4f 	dsb	sy
 800356e:	e7fe      	b.n	800356e <xTaskIncrementTick+0x2e>
 8003570:	4a35      	ldr	r2, [pc, #212]	; (8003648 <xTaskIncrementTick+0x108>)
 8003572:	6819      	ldr	r1, [r3, #0]
 8003574:	6810      	ldr	r0, [r2, #0]
 8003576:	6018      	str	r0, [r3, #0]
 8003578:	6011      	str	r1, [r2, #0]
 800357a:	4a34      	ldr	r2, [pc, #208]	; (800364c <xTaskIncrementTick+0x10c>)
 800357c:	6813      	ldr	r3, [r2, #0]
 800357e:	3301      	adds	r3, #1
 8003580:	6013      	str	r3, [r2, #0]
 8003582:	f7ff fe6b 	bl	800325c <prvResetNextTaskUnblockTime>
 8003586:	4d32      	ldr	r5, [pc, #200]	; (8003650 <xTaskIncrementTick+0x110>)
 8003588:	4f32      	ldr	r7, [pc, #200]	; (8003654 <xTaskIncrementTick+0x114>)
 800358a:	682b      	ldr	r3, [r5, #0]
 800358c:	42a3      	cmp	r3, r4
 800358e:	f04f 0b00 	mov.w	fp, #0
 8003592:	d911      	bls.n	80035b8 <xTaskIncrementTick+0x78>
 8003594:	683a      	ldr	r2, [r7, #0]
 8003596:	4b30      	ldr	r3, [pc, #192]	; (8003658 <xTaskIncrementTick+0x118>)
 8003598:	6ad1      	ldr	r1, [r2, #44]	; 0x2c
 800359a:	2214      	movs	r2, #20
 800359c:	434a      	muls	r2, r1
 800359e:	589a      	ldr	r2, [r3, r2]
 80035a0:	2a02      	cmp	r2, #2
 80035a2:	bf28      	it	cs
 80035a4:	f04f 0b01 	movcs.w	fp, #1
 80035a8:	4a2c      	ldr	r2, [pc, #176]	; (800365c <xTaskIncrementTick+0x11c>)
 80035aa:	6812      	ldr	r2, [r2, #0]
 80035ac:	2a00      	cmp	r2, #0
 80035ae:	bf0c      	ite	eq
 80035b0:	4658      	moveq	r0, fp
 80035b2:	2001      	movne	r0, #1
 80035b4:	e8bd 8ff8 	ldmia.w	sp!, {r3, r4, r5, r6, r7, r8, r9, sl, fp, pc}
 80035b8:	f8df 9088 	ldr.w	r9, [pc, #136]	; 8003644 <xTaskIncrementTick+0x104>
 80035bc:	f8df a0a4 	ldr.w	sl, [pc, #164]	; 8003664 <xTaskIncrementTick+0x124>
 80035c0:	f8d9 2000 	ldr.w	r2, [r9]
 80035c4:	6812      	ldr	r2, [r2, #0]
 80035c6:	b91a      	cbnz	r2, 80035d0 <xTaskIncrementTick+0x90>
 80035c8:	f04f 32ff 	mov.w	r2, #4294967295
 80035cc:	602a      	str	r2, [r5, #0]
 80035ce:	e7e1      	b.n	8003594 <xTaskIncrementTick+0x54>
 80035d0:	f8d9 2000 	ldr.w	r2, [r9]
 80035d4:	68d2      	ldr	r2, [r2, #12]
 80035d6:	68d6      	ldr	r6, [r2, #12]
 80035d8:	6871      	ldr	r1, [r6, #4]
 80035da:	428c      	cmp	r4, r1
 80035dc:	d201      	bcs.n	80035e2 <xTaskIncrementTick+0xa2>
 80035de:	6029      	str	r1, [r5, #0]
 80035e0:	e7d8      	b.n	8003594 <xTaskIncrementTick+0x54>
 80035e2:	f106 0804 	add.w	r8, r6, #4
 80035e6:	4640      	mov	r0, r8
 80035e8:	f7fe ff91 	bl	800250e <uxListRemove>
 80035ec:	6ab1      	ldr	r1, [r6, #40]	; 0x28
 80035ee:	b119      	cbz	r1, 80035f8 <xTaskIncrementTick+0xb8>
 80035f0:	f106 0018 	add.w	r0, r6, #24
 80035f4:	f7fe ff8b 	bl	800250e <uxListRemove>
 80035f8:	4630      	mov	r0, r6
 80035fa:	f001 fcf7 	bl	8004fec <SEGGER_SYSVIEW_OnTaskStartReady>
 80035fe:	6af0      	ldr	r0, [r6, #44]	; 0x2c
 8003600:	f8da 1000 	ldr.w	r1, [sl]
 8003604:	4b14      	ldr	r3, [pc, #80]	; (8003658 <xTaskIncrementTick+0x118>)
 8003606:	4288      	cmp	r0, r1
 8003608:	f04f 0214 	mov.w	r2, #20
 800360c:	bf88      	it	hi
 800360e:	f8ca 0000 	strhi.w	r0, [sl]
 8003612:	4641      	mov	r1, r8
 8003614:	fb02 3000 	mla	r0, r2, r0, r3
 8003618:	f7fe ff56 	bl	80024c8 <vListInsertEnd>
 800361c:	6838      	ldr	r0, [r7, #0]
 800361e:	6af1      	ldr	r1, [r6, #44]	; 0x2c
 8003620:	6ac2      	ldr	r2, [r0, #44]	; 0x2c
 8003622:	4291      	cmp	r1, r2
 8003624:	bf28      	it	cs
 8003626:	f04f 0b01 	movcs.w	fp, #1
 800362a:	e7c9      	b.n	80035c0 <xTaskIncrementTick+0x80>
 800362c:	4a0c      	ldr	r2, [pc, #48]	; (8003660 <xTaskIncrementTick+0x120>)
 800362e:	6813      	ldr	r3, [r2, #0]
 8003630:	3301      	adds	r3, #1
 8003632:	6013      	str	r3, [r2, #0]
 8003634:	f04f 0b00 	mov.w	fp, #0
 8003638:	e7b6      	b.n	80035a8 <xTaskIncrementTick+0x68>
 800363a:	bf00      	nop
 800363c:	20000b70 	.word	0x20000b70
 8003640:	20000bec 	.word	0x20000bec
 8003644:	200006f8 	.word	0x200006f8
 8003648:	200006fc 	.word	0x200006fc
 800364c:	20000ba8 	.word	0x20000ba8
 8003650:	20000ba4 	.word	0x20000ba4
 8003654:	200006f4 	.word	0x200006f4
 8003658:	20000700 	.word	0x20000700
 800365c:	20000bf0 	.word	0x20000bf0
 8003660:	20000b6c 	.word	0x20000b6c
 8003664:	20000b78 	.word	0x20000b78

08003668 <xTaskResumeAll>:
 8003668:	e92d 41f0 	stmdb	sp!, {r4, r5, r6, r7, r8, lr}
 800366c:	4c31      	ldr	r4, [pc, #196]	; (8003734 <xTaskResumeAll+0xcc>)
 800366e:	6823      	ldr	r3, [r4, #0]
 8003670:	b943      	cbnz	r3, 8003684 <xTaskResumeAll+0x1c>
 8003672:	f04f 0350 	mov.w	r3, #80	; 0x50
 8003676:	f383 8811 	msr	BASEPRI, r3
 800367a:	f3bf 8f6f 	isb	sy
 800367e:	f3bf 8f4f 	dsb	sy
 8003682:	e7fe      	b.n	8003682 <xTaskResumeAll+0x1a>
 8003684:	f000 fd46 	bl	8004114 <vPortEnterCritical>
 8003688:	6823      	ldr	r3, [r4, #0]
 800368a:	3b01      	subs	r3, #1
 800368c:	6023      	str	r3, [r4, #0]
 800368e:	6824      	ldr	r4, [r4, #0]
 8003690:	b12c      	cbz	r4, 800369e <xTaskResumeAll+0x36>
 8003692:	2400      	movs	r4, #0
 8003694:	f000 fd60 	bl	8004158 <vPortExitCritical>
 8003698:	4620      	mov	r0, r4
 800369a:	e8bd 81f0 	ldmia.w	sp!, {r4, r5, r6, r7, r8, pc}
 800369e:	4b26      	ldr	r3, [pc, #152]	; (8003738 <xTaskResumeAll+0xd0>)
 80036a0:	681b      	ldr	r3, [r3, #0]
 80036a2:	2b00      	cmp	r3, #0
 80036a4:	d0f5      	beq.n	8003692 <xTaskResumeAll+0x2a>
 80036a6:	4d25      	ldr	r5, [pc, #148]	; (800373c <xTaskResumeAll+0xd4>)
 80036a8:	4e25      	ldr	r6, [pc, #148]	; (8003740 <xTaskResumeAll+0xd8>)
 80036aa:	f8df 80a8 	ldr.w	r8, [pc, #168]	; 8003754 <xTaskResumeAll+0xec>
 80036ae:	e020      	b.n	80036f2 <xTaskResumeAll+0x8a>
 80036b0:	68eb      	ldr	r3, [r5, #12]
 80036b2:	68dc      	ldr	r4, [r3, #12]
 80036b4:	1d27      	adds	r7, r4, #4
 80036b6:	f104 0018 	add.w	r0, r4, #24
 80036ba:	f7fe ff28 	bl	800250e <uxListRemove>
 80036be:	4638      	mov	r0, r7
 80036c0:	f7fe ff25 	bl	800250e <uxListRemove>
 80036c4:	4620      	mov	r0, r4
 80036c6:	f001 fc91 	bl	8004fec <SEGGER_SYSVIEW_OnTaskStartReady>
 80036ca:	6ae3      	ldr	r3, [r4, #44]	; 0x2c
 80036cc:	6832      	ldr	r2, [r6, #0]
 80036ce:	2014      	movs	r0, #20
 80036d0:	4293      	cmp	r3, r2
 80036d2:	fb00 8003 	mla	r0, r0, r3, r8
 80036d6:	4639      	mov	r1, r7
 80036d8:	bf88      	it	hi
 80036da:	6033      	strhi	r3, [r6, #0]
 80036dc:	f7fe fef4 	bl	80024c8 <vListInsertEnd>
 80036e0:	4b18      	ldr	r3, [pc, #96]	; (8003744 <xTaskResumeAll+0xdc>)
 80036e2:	6ae2      	ldr	r2, [r4, #44]	; 0x2c
 80036e4:	681b      	ldr	r3, [r3, #0]
 80036e6:	6adb      	ldr	r3, [r3, #44]	; 0x2c
 80036e8:	429a      	cmp	r2, r3
 80036ea:	d302      	bcc.n	80036f2 <xTaskResumeAll+0x8a>
 80036ec:	4b16      	ldr	r3, [pc, #88]	; (8003748 <xTaskResumeAll+0xe0>)
 80036ee:	2201      	movs	r2, #1
 80036f0:	601a      	str	r2, [r3, #0]
 80036f2:	682b      	ldr	r3, [r5, #0]
 80036f4:	2b00      	cmp	r3, #0
 80036f6:	d1db      	bne.n	80036b0 <xTaskResumeAll+0x48>
 80036f8:	b10c      	cbz	r4, 80036fe <xTaskResumeAll+0x96>
 80036fa:	f7ff fdaf 	bl	800325c <prvResetNextTaskUnblockTime>
 80036fe:	4d13      	ldr	r5, [pc, #76]	; (800374c <xTaskResumeAll+0xe4>)
 8003700:	682c      	ldr	r4, [r5, #0]
 8003702:	b144      	cbz	r4, 8003716 <xTaskResumeAll+0xae>
 8003704:	4e10      	ldr	r6, [pc, #64]	; (8003748 <xTaskResumeAll+0xe0>)
 8003706:	2701      	movs	r7, #1
 8003708:	f7ff ff1a 	bl	8003540 <xTaskIncrementTick>
 800370c:	b100      	cbz	r0, 8003710 <xTaskResumeAll+0xa8>
 800370e:	6037      	str	r7, [r6, #0]
 8003710:	3c01      	subs	r4, #1
 8003712:	d1f9      	bne.n	8003708 <xTaskResumeAll+0xa0>
 8003714:	602c      	str	r4, [r5, #0]
 8003716:	4b0c      	ldr	r3, [pc, #48]	; (8003748 <xTaskResumeAll+0xe0>)
 8003718:	681b      	ldr	r3, [r3, #0]
 800371a:	2b00      	cmp	r3, #0
 800371c:	d0b9      	beq.n	8003692 <xTaskResumeAll+0x2a>
 800371e:	4b0c      	ldr	r3, [pc, #48]	; (8003750 <xTaskResumeAll+0xe8>)
 8003720:	f04f 5280 	mov.w	r2, #268435456	; 0x10000000
 8003724:	601a      	str	r2, [r3, #0]
 8003726:	f3bf 8f4f 	dsb	sy
 800372a:	f3bf 8f6f 	isb	sy
 800372e:	2401      	movs	r4, #1
 8003730:	e7b0      	b.n	8003694 <xTaskResumeAll+0x2c>
 8003732:	bf00      	nop
 8003734:	20000b70 	.word	0x20000b70
 8003738:	20000b64 	.word	0x20000b64
 800373c:	20000bac 	.word	0x20000bac
 8003740:	20000b78 	.word	0x20000b78
 8003744:	200006f4 	.word	0x200006f4
 8003748:	20000bf0 	.word	0x20000bf0
 800374c:	20000b6c 	.word	0x20000b6c
 8003750:	e000ed04 	.word	0xe000ed04
 8003754:	20000700 	.word	0x20000700

08003758 <vTaskDelay>:
 8003758:	b538      	push	{r3, r4, r5, lr}
 800375a:	4604      	mov	r4, r0
 800375c:	b940      	cbnz	r0, 8003770 <vTaskDelay+0x18>
 800375e:	4b12      	ldr	r3, [pc, #72]	; (80037a8 <vTaskDelay+0x50>)
 8003760:	f04f 5280 	mov.w	r2, #268435456	; 0x10000000
 8003764:	601a      	str	r2, [r3, #0]
 8003766:	f3bf 8f4f 	dsb	sy
 800376a:	f3bf 8f6f 	isb	sy
 800376e:	bd38      	pop	{r3, r4, r5, pc}
 8003770:	4b0e      	ldr	r3, [pc, #56]	; (80037ac <vTaskDelay+0x54>)
 8003772:	681d      	ldr	r5, [r3, #0]
 8003774:	b145      	cbz	r5, 8003788 <vTaskDelay+0x30>
 8003776:	f04f 0350 	mov.w	r3, #80	; 0x50
 800377a:	f383 8811 	msr	BASEPRI, r3
 800377e:	f3bf 8f6f 	isb	sy
 8003782:	f3bf 8f4f 	dsb	sy
 8003786:	e7fe      	b.n	8003786 <vTaskDelay+0x2e>
 8003788:	f7ff fec4 	bl	8003514 <vTaskSuspendAll>
 800378c:	4601      	mov	r1, r0
 800378e:	2023      	movs	r0, #35	; 0x23
 8003790:	f001 f9d4 	bl	8004b3c <SEGGER_SYSVIEW_RecordU32>
 8003794:	4629      	mov	r1, r5
 8003796:	4620      	mov	r0, r4
 8003798:	f7ff fdc2 	bl	8003320 <prvAddCurrentTaskToDelayedList>
 800379c:	f7ff ff64 	bl	8003668 <xTaskResumeAll>
 80037a0:	2800      	cmp	r0, #0
 80037a2:	d0dc      	beq.n	800375e <vTaskDelay+0x6>
 80037a4:	e7e3      	b.n	800376e <vTaskDelay+0x16>
 80037a6:	bf00      	nop
 80037a8:	e000ed04 	.word	0xe000ed04
 80037ac:	20000b70 	.word	0x20000b70

080037b0 <vTaskSwitchContext>:
 80037b0:	b5f8      	push	{r3, r4, r5, r6, r7, lr}
 80037b2:	4b26      	ldr	r3, [pc, #152]	; (800384c <vTaskSwitchContext+0x9c>)
 80037b4:	681a      	ldr	r2, [r3, #0]
 80037b6:	4b26      	ldr	r3, [pc, #152]	; (8003850 <vTaskSwitchContext+0xa0>)
 80037b8:	b112      	cbz	r2, 80037c0 <vTaskSwitchContext+0x10>
 80037ba:	2201      	movs	r2, #1
 80037bc:	601a      	str	r2, [r3, #0]
 80037be:	bdf8      	pop	{r3, r4, r5, r6, r7, pc}
 80037c0:	601a      	str	r2, [r3, #0]
 80037c2:	f7fc fecc 	bl	800055e <getRunTimeCounterValue>
 80037c6:	4a23      	ldr	r2, [pc, #140]	; (8003854 <vTaskSwitchContext+0xa4>)
 80037c8:	6814      	ldr	r4, [r2, #0]
 80037ca:	42a0      	cmp	r0, r4
 80037cc:	d905      	bls.n	80037da <vTaskSwitchContext+0x2a>
 80037ce:	4b22      	ldr	r3, [pc, #136]	; (8003858 <vTaskSwitchContext+0xa8>)
 80037d0:	6819      	ldr	r1, [r3, #0]
 80037d2:	6d4b      	ldr	r3, [r1, #84]	; 0x54
 80037d4:	1b1b      	subs	r3, r3, r4
 80037d6:	4403      	add	r3, r0
 80037d8:	654b      	str	r3, [r1, #84]	; 0x54
 80037da:	4d20      	ldr	r5, [pc, #128]	; (800385c <vTaskSwitchContext+0xac>)
 80037dc:	6010      	str	r0, [r2, #0]
 80037de:	4a20      	ldr	r2, [pc, #128]	; (8003860 <vTaskSwitchContext+0xb0>)
 80037e0:	682b      	ldr	r3, [r5, #0]
 80037e2:	2714      	movs	r7, #20
 80037e4:	4616      	mov	r6, r2
 80037e6:	fb07 f103 	mul.w	r1, r7, r3
 80037ea:	1850      	adds	r0, r2, r1
 80037ec:	5854      	ldr	r4, [r2, r1]
 80037ee:	b1e4      	cbz	r4, 800382a <vTaskSwitchContext+0x7a>
 80037f0:	6844      	ldr	r4, [r0, #4]
 80037f2:	3108      	adds	r1, #8
 80037f4:	6864      	ldr	r4, [r4, #4]
 80037f6:	6044      	str	r4, [r0, #4]
 80037f8:	440a      	add	r2, r1
 80037fa:	4294      	cmp	r4, r2
 80037fc:	bf04      	itt	eq
 80037fe:	6862      	ldreq	r2, [r4, #4]
 8003800:	6042      	streq	r2, [r0, #4]
 8003802:	2214      	movs	r2, #20
 8003804:	fb02 6203 	mla	r2, r2, r3, r6
 8003808:	4c13      	ldr	r4, [pc, #76]	; (8003858 <vTaskSwitchContext+0xa8>)
 800380a:	6852      	ldr	r2, [r2, #4]
 800380c:	4915      	ldr	r1, [pc, #84]	; (8003864 <vTaskSwitchContext+0xb4>)
 800380e:	68d2      	ldr	r2, [r2, #12]
 8003810:	6022      	str	r2, [r4, #0]
 8003812:	602b      	str	r3, [r5, #0]
 8003814:	6820      	ldr	r0, [r4, #0]
 8003816:	2205      	movs	r2, #5
 8003818:	3034      	adds	r0, #52	; 0x34
 800381a:	f001 fd31 	bl	8005280 <memcmp>
 800381e:	b180      	cbz	r0, 8003842 <vTaskSwitchContext+0x92>
 8003820:	6820      	ldr	r0, [r4, #0]
 8003822:	e8bd 40f8 	ldmia.w	sp!, {r3, r4, r5, r6, r7, lr}
 8003826:	f001 bbbd 	b.w	8004fa4 <SEGGER_SYSVIEW_OnTaskStartExec>
 800382a:	b943      	cbnz	r3, 800383e <vTaskSwitchContext+0x8e>
 800382c:	f04f 0350 	mov.w	r3, #80	; 0x50
 8003830:	f383 8811 	msr	BASEPRI, r3
 8003834:	f3bf 8f6f 	isb	sy
 8003838:	f3bf 8f4f 	dsb	sy
 800383c:	e7fe      	b.n	800383c <vTaskSwitchContext+0x8c>
 800383e:	3b01      	subs	r3, #1
 8003840:	e7d1      	b.n	80037e6 <vTaskSwitchContext+0x36>
 8003842:	e8bd 40f8 	ldmia.w	sp!, {r3, r4, r5, r6, r7, lr}
 8003846:	f001 bb77 	b.w	8004f38 <SEGGER_SYSVIEW_OnIdle>
 800384a:	bf00      	nop
 800384c:	20000b70 	.word	0x20000b70
 8003850:	20000bf0 	.word	0x20000bf0
 8003854:	20000b60 	.word	0x20000b60
 8003858:	200006f4 	.word	0x200006f4
 800385c:	20000b78 	.word	0x20000b78
 8003860:	20000700 	.word	0x20000700
 8003864:	080053b4 	.word	0x080053b4

08003868 <vTaskPlaceOnEventList>:
 8003868:	b510      	push	{r4, lr}
 800386a:	460c      	mov	r4, r1
 800386c:	b940      	cbnz	r0, 8003880 <vTaskPlaceOnEventList+0x18>
 800386e:	f04f 0350 	mov.w	r3, #80	; 0x50
 8003872:	f383 8811 	msr	BASEPRI, r3
 8003876:	f3bf 8f6f 	isb	sy
 800387a:	f3bf 8f4f 	dsb	sy
 800387e:	e7fe      	b.n	800387e <vTaskPlaceOnEventList+0x16>
 8003880:	4b05      	ldr	r3, [pc, #20]	; (8003898 <vTaskPlaceOnEventList+0x30>)
 8003882:	6819      	ldr	r1, [r3, #0]
 8003884:	3118      	adds	r1, #24
 8003886:	f7fe fe2b 	bl	80024e0 <vListInsert>
 800388a:	4620      	mov	r0, r4
 800388c:	2101      	movs	r1, #1
 800388e:	e8bd 4010 	ldmia.w	sp!, {r4, lr}
 8003892:	f7ff bd45 	b.w	8003320 <prvAddCurrentTaskToDelayedList>
 8003896:	bf00      	nop
 8003898:	200006f4 	.word	0x200006f4

0800389c <vTaskPlaceOnEventListRestricted>:
 800389c:	b538      	push	{r3, r4, r5, lr}
 800389e:	460c      	mov	r4, r1
 80038a0:	4615      	mov	r5, r2
 80038a2:	b940      	cbnz	r0, 80038b6 <vTaskPlaceOnEventListRestricted+0x1a>
 80038a4:	f04f 0350 	mov.w	r3, #80	; 0x50
 80038a8:	f383 8811 	msr	BASEPRI, r3
 80038ac:	f3bf 8f6f 	isb	sy
 80038b0:	f3bf 8f4f 	dsb	sy
 80038b4:	e7fe      	b.n	80038b4 <vTaskPlaceOnEventListRestricted+0x18>
 80038b6:	4b09      	ldr	r3, [pc, #36]	; (80038dc <vTaskPlaceOnEventListRestricted+0x40>)
 80038b8:	6819      	ldr	r1, [r3, #0]
 80038ba:	3118      	adds	r1, #24
 80038bc:	f7fe fe04 	bl	80024c8 <vListInsertEnd>
 80038c0:	2d00      	cmp	r5, #0
 80038c2:	bf18      	it	ne
 80038c4:	f04f 34ff 	movne.w	r4, #4294967295
 80038c8:	2024      	movs	r0, #36	; 0x24
 80038ca:	f001 f925 	bl	8004b18 <SEGGER_SYSVIEW_RecordVoid>
 80038ce:	4629      	mov	r1, r5
 80038d0:	4620      	mov	r0, r4
 80038d2:	e8bd 4038 	ldmia.w	sp!, {r3, r4, r5, lr}
 80038d6:	f7ff bd23 	b.w	8003320 <prvAddCurrentTaskToDelayedList>
 80038da:	bf00      	nop
 80038dc:	200006f4 	.word	0x200006f4

080038e0 <xTaskRemoveFromEventList>:
 80038e0:	b538      	push	{r3, r4, r5, lr}
 80038e2:	68c3      	ldr	r3, [r0, #12]
 80038e4:	68dc      	ldr	r4, [r3, #12]
 80038e6:	b944      	cbnz	r4, 80038fa <xTaskRemoveFromEventList+0x1a>
 80038e8:	f04f 0350 	mov.w	r3, #80	; 0x50
 80038ec:	f383 8811 	msr	BASEPRI, r3
 80038f0:	f3bf 8f6f 	isb	sy
 80038f4:	f3bf 8f4f 	dsb	sy
 80038f8:	e7fe      	b.n	80038f8 <xTaskRemoveFromEventList+0x18>
 80038fa:	f104 0518 	add.w	r5, r4, #24
 80038fe:	4628      	mov	r0, r5
 8003900:	f7fe fe05 	bl	800250e <uxListRemove>
 8003904:	4b12      	ldr	r3, [pc, #72]	; (8003950 <xTaskRemoveFromEventList+0x70>)
 8003906:	681b      	ldr	r3, [r3, #0]
 8003908:	b9f3      	cbnz	r3, 8003948 <xTaskRemoveFromEventList+0x68>
 800390a:	1d25      	adds	r5, r4, #4
 800390c:	4628      	mov	r0, r5
 800390e:	f7fe fdfe 	bl	800250e <uxListRemove>
 8003912:	4620      	mov	r0, r4
 8003914:	f001 fb6a 	bl	8004fec <SEGGER_SYSVIEW_OnTaskStartReady>
 8003918:	4a0e      	ldr	r2, [pc, #56]	; (8003954 <xTaskRemoveFromEventList+0x74>)
 800391a:	6ae3      	ldr	r3, [r4, #44]	; 0x2c
 800391c:	6811      	ldr	r1, [r2, #0]
 800391e:	428b      	cmp	r3, r1
 8003920:	bf88      	it	hi
 8003922:	6013      	strhi	r3, [r2, #0]
 8003924:	4a0c      	ldr	r2, [pc, #48]	; (8003958 <xTaskRemoveFromEventList+0x78>)
 8003926:	2014      	movs	r0, #20
 8003928:	4629      	mov	r1, r5
 800392a:	fb00 2003 	mla	r0, r0, r3, r2
 800392e:	f7fe fdcb 	bl	80024c8 <vListInsertEnd>
 8003932:	4b0a      	ldr	r3, [pc, #40]	; (800395c <xTaskRemoveFromEventList+0x7c>)
 8003934:	6ae2      	ldr	r2, [r4, #44]	; 0x2c
 8003936:	681b      	ldr	r3, [r3, #0]
 8003938:	6adb      	ldr	r3, [r3, #44]	; 0x2c
 800393a:	429a      	cmp	r2, r3
 800393c:	bf83      	ittte	hi
 800393e:	4b08      	ldrhi	r3, [pc, #32]	; (8003960 <xTaskRemoveFromEventList+0x80>)
 8003940:	2001      	movhi	r0, #1
 8003942:	6018      	strhi	r0, [r3, #0]
 8003944:	2000      	movls	r0, #0
 8003946:	bd38      	pop	{r3, r4, r5, pc}
 8003948:	4629      	mov	r1, r5
 800394a:	4806      	ldr	r0, [pc, #24]	; (8003964 <xTaskRemoveFromEventList+0x84>)
 800394c:	e7ef      	b.n	800392e <xTaskRemoveFromEventList+0x4e>
 800394e:	bf00      	nop
 8003950:	20000b70 	.word	0x20000b70
 8003954:	20000b78 	.word	0x20000b78
 8003958:	20000700 	.word	0x20000700
 800395c:	200006f4 	.word	0x200006f4
 8003960:	20000bf0 	.word	0x20000bf0
 8003964:	20000bac 	.word	0x20000bac

08003968 <vTaskInternalSetTimeOutState>:
 8003968:	4b03      	ldr	r3, [pc, #12]	; (8003978 <vTaskInternalSetTimeOutState+0x10>)
 800396a:	681b      	ldr	r3, [r3, #0]
 800396c:	6003      	str	r3, [r0, #0]
 800396e:	4b03      	ldr	r3, [pc, #12]	; (800397c <vTaskInternalSetTimeOutState+0x14>)
 8003970:	681b      	ldr	r3, [r3, #0]
 8003972:	6043      	str	r3, [r0, #4]
 8003974:	4770      	bx	lr
 8003976:	bf00      	nop
 8003978:	20000ba8 	.word	0x20000ba8
 800397c:	20000bec 	.word	0x20000bec

08003980 <xTaskCheckForTimeOut>:
 8003980:	b570      	push	{r4, r5, r6, lr}
 8003982:	460d      	mov	r5, r1
 8003984:	4606      	mov	r6, r0
 8003986:	b940      	cbnz	r0, 800399a <xTaskCheckForTimeOut+0x1a>
 8003988:	f04f 0350 	mov.w	r3, #80	; 0x50
 800398c:	f383 8811 	msr	BASEPRI, r3
 8003990:	f3bf 8f6f 	isb	sy
 8003994:	f3bf 8f4f 	dsb	sy
 8003998:	e7fe      	b.n	8003998 <xTaskCheckForTimeOut+0x18>
 800399a:	b941      	cbnz	r1, 80039ae <xTaskCheckForTimeOut+0x2e>
 800399c:	f04f 0350 	mov.w	r3, #80	; 0x50
 80039a0:	f383 8811 	msr	BASEPRI, r3
 80039a4:	f3bf 8f6f 	isb	sy
 80039a8:	f3bf 8f4f 	dsb	sy
 80039ac:	e7fe      	b.n	80039ac <xTaskCheckForTimeOut+0x2c>
 80039ae:	f000 fbb1 	bl	8004114 <vPortEnterCritical>
 80039b2:	4b14      	ldr	r3, [pc, #80]	; (8003a04 <xTaskCheckForTimeOut+0x84>)
 80039b4:	681a      	ldr	r2, [r3, #0]
 80039b6:	4b14      	ldr	r3, [pc, #80]	; (8003a08 <xTaskCheckForTimeOut+0x88>)
 80039b8:	6819      	ldr	r1, [r3, #0]
 80039ba:	f891 405e 	ldrb.w	r4, [r1, #94]	; 0x5e
 80039be:	b12c      	cbz	r4, 80039cc <xTaskCheckForTimeOut+0x4c>
 80039c0:	681b      	ldr	r3, [r3, #0]
 80039c2:	2200      	movs	r2, #0
 80039c4:	f883 205e 	strb.w	r2, [r3, #94]	; 0x5e
 80039c8:	2401      	movs	r4, #1
 80039ca:	e013      	b.n	80039f4 <xTaskCheckForTimeOut+0x74>
 80039cc:	682b      	ldr	r3, [r5, #0]
 80039ce:	1c59      	adds	r1, r3, #1
 80039d0:	d010      	beq.n	80039f4 <xTaskCheckForTimeOut+0x74>
 80039d2:	480e      	ldr	r0, [pc, #56]	; (8003a0c <xTaskCheckForTimeOut+0x8c>)
 80039d4:	6834      	ldr	r4, [r6, #0]
 80039d6:	6800      	ldr	r0, [r0, #0]
 80039d8:	6871      	ldr	r1, [r6, #4]
 80039da:	4284      	cmp	r4, r0
 80039dc:	d001      	beq.n	80039e2 <xTaskCheckForTimeOut+0x62>
 80039de:	4291      	cmp	r1, r2
 80039e0:	d9f2      	bls.n	80039c8 <xTaskCheckForTimeOut+0x48>
 80039e2:	1a52      	subs	r2, r2, r1
 80039e4:	4293      	cmp	r3, r2
 80039e6:	d909      	bls.n	80039fc <xTaskCheckForTimeOut+0x7c>
 80039e8:	1a9b      	subs	r3, r3, r2
 80039ea:	602b      	str	r3, [r5, #0]
 80039ec:	4630      	mov	r0, r6
 80039ee:	f7ff ffbb 	bl	8003968 <vTaskInternalSetTimeOutState>
 80039f2:	2400      	movs	r4, #0
 80039f4:	f000 fbb0 	bl	8004158 <vPortExitCritical>
 80039f8:	4620      	mov	r0, r4
 80039fa:	bd70      	pop	{r4, r5, r6, pc}
 80039fc:	2300      	movs	r3, #0
 80039fe:	602b      	str	r3, [r5, #0]
 8003a00:	e7e2      	b.n	80039c8 <xTaskCheckForTimeOut+0x48>
 8003a02:	bf00      	nop
 8003a04:	20000bec 	.word	0x20000bec
 8003a08:	200006f4 	.word	0x200006f4
 8003a0c:	20000ba8 	.word	0x20000ba8

08003a10 <vTaskMissedYield>:
 8003a10:	4b01      	ldr	r3, [pc, #4]	; (8003a18 <vTaskMissedYield+0x8>)
 8003a12:	2201      	movs	r2, #1
 8003a14:	601a      	str	r2, [r3, #0]
 8003a16:	4770      	bx	lr
 8003a18:	20000bf0 	.word	0x20000bf0

08003a1c <uxTaskGetStackHighWaterMark>:
 8003a1c:	b908      	cbnz	r0, 8003a22 <uxTaskGetStackHighWaterMark+0x6>
 8003a1e:	4b06      	ldr	r3, [pc, #24]	; (8003a38 <uxTaskGetStackHighWaterMark+0x1c>)
 8003a20:	6818      	ldr	r0, [r3, #0]
 8003a22:	6b02      	ldr	r2, [r0, #48]	; 0x30
 8003a24:	4613      	mov	r3, r2
 8003a26:	1a98      	subs	r0, r3, r2
 8003a28:	f813 1b01 	ldrb.w	r1, [r3], #1
 8003a2c:	29a5      	cmp	r1, #165	; 0xa5
 8003a2e:	d0fa      	beq.n	8003a26 <uxTaskGetStackHighWaterMark+0xa>
 8003a30:	f3c0 008f 	ubfx	r0, r0, #2, #16
 8003a34:	4770      	bx	lr
 8003a36:	bf00      	nop
 8003a38:	200006f4 	.word	0x200006f4

08003a3c <xTaskGetSchedulerState>:
 8003a3c:	4b05      	ldr	r3, [pc, #20]	; (8003a54 <xTaskGetSchedulerState+0x18>)
 8003a3e:	681b      	ldr	r3, [r3, #0]
 8003a40:	b133      	cbz	r3, 8003a50 <xTaskGetSchedulerState+0x14>
 8003a42:	4b05      	ldr	r3, [pc, #20]	; (8003a58 <xTaskGetSchedulerState+0x1c>)
 8003a44:	681b      	ldr	r3, [r3, #0]
 8003a46:	2b00      	cmp	r3, #0
 8003a48:	bf0c      	ite	eq
 8003a4a:	2002      	moveq	r0, #2
 8003a4c:	2000      	movne	r0, #0
 8003a4e:	4770      	bx	lr
 8003a50:	2001      	movs	r0, #1
 8003a52:	4770      	bx	lr
 8003a54:	20000bc0 	.word	0x20000bc0
 8003a58:	20000b70 	.word	0x20000b70

08003a5c <xTaskPriorityInherit>:
 8003a5c:	b5f8      	push	{r3, r4, r5, r6, r7, lr}
 8003a5e:	4604      	mov	r4, r0
 8003a60:	2800      	cmp	r0, #0
 8003a62:	d030      	beq.n	8003ac6 <xTaskPriorityInherit+0x6a>
 8003a64:	4a1e      	ldr	r2, [pc, #120]	; (8003ae0 <xTaskPriorityInherit+0x84>)
 8003a66:	6ac3      	ldr	r3, [r0, #44]	; 0x2c
 8003a68:	6811      	ldr	r1, [r2, #0]
 8003a6a:	6ac9      	ldr	r1, [r1, #44]	; 0x2c
 8003a6c:	428b      	cmp	r3, r1
 8003a6e:	4616      	mov	r6, r2
 8003a70:	d22e      	bcs.n	8003ad0 <xTaskPriorityInherit+0x74>
 8003a72:	6982      	ldr	r2, [r0, #24]
 8003a74:	4d1b      	ldr	r5, [pc, #108]	; (8003ae4 <xTaskPriorityInherit+0x88>)
 8003a76:	2a00      	cmp	r2, #0
 8003a78:	bfa1      	itttt	ge
 8003a7a:	6832      	ldrge	r2, [r6, #0]
 8003a7c:	6ad2      	ldrge	r2, [r2, #44]	; 0x2c
 8003a7e:	f1c2 0238 	rsbge	r2, r2, #56	; 0x38
 8003a82:	6182      	strge	r2, [r0, #24]
 8003a84:	2214      	movs	r2, #20
 8003a86:	fb02 5303 	mla	r3, r2, r3, r5
 8003a8a:	6942      	ldr	r2, [r0, #20]
 8003a8c:	429a      	cmp	r2, r3
 8003a8e:	d11b      	bne.n	8003ac8 <xTaskPriorityInherit+0x6c>
 8003a90:	1d07      	adds	r7, r0, #4
 8003a92:	4638      	mov	r0, r7
 8003a94:	f7fe fd3b 	bl	800250e <uxListRemove>
 8003a98:	6833      	ldr	r3, [r6, #0]
 8003a9a:	6adb      	ldr	r3, [r3, #44]	; 0x2c
 8003a9c:	62e3      	str	r3, [r4, #44]	; 0x2c
 8003a9e:	4620      	mov	r0, r4
 8003aa0:	f001 faa4 	bl	8004fec <SEGGER_SYSVIEW_OnTaskStartReady>
 8003aa4:	4a10      	ldr	r2, [pc, #64]	; (8003ae8 <xTaskPriorityInherit+0x8c>)
 8003aa6:	6ae3      	ldr	r3, [r4, #44]	; 0x2c
 8003aa8:	6811      	ldr	r1, [r2, #0]
 8003aaa:	2014      	movs	r0, #20
 8003aac:	428b      	cmp	r3, r1
 8003aae:	fb00 5003 	mla	r0, r0, r3, r5
 8003ab2:	4639      	mov	r1, r7
 8003ab4:	bf88      	it	hi
 8003ab6:	6013      	strhi	r3, [r2, #0]
 8003ab8:	f7fe fd06 	bl	80024c8 <vListInsertEnd>
 8003abc:	2049      	movs	r0, #73	; 0x49
 8003abe:	4621      	mov	r1, r4
 8003ac0:	f001 f83c 	bl	8004b3c <SEGGER_SYSVIEW_RecordU32>
 8003ac4:	2001      	movs	r0, #1
 8003ac6:	bdf8      	pop	{r3, r4, r5, r6, r7, pc}
 8003ac8:	6833      	ldr	r3, [r6, #0]
 8003aca:	6adb      	ldr	r3, [r3, #44]	; 0x2c
 8003acc:	62c3      	str	r3, [r0, #44]	; 0x2c
 8003ace:	e7f5      	b.n	8003abc <xTaskPriorityInherit+0x60>
 8003ad0:	6813      	ldr	r3, [r2, #0]
 8003ad2:	6cc0      	ldr	r0, [r0, #76]	; 0x4c
 8003ad4:	6adc      	ldr	r4, [r3, #44]	; 0x2c
 8003ad6:	42a0      	cmp	r0, r4
 8003ad8:	bf2c      	ite	cs
 8003ada:	2000      	movcs	r0, #0
 8003adc:	2001      	movcc	r0, #1
 8003ade:	e7f2      	b.n	8003ac6 <xTaskPriorityInherit+0x6a>
 8003ae0:	200006f4 	.word	0x200006f4
 8003ae4:	20000700 	.word	0x20000700
 8003ae8:	20000b78 	.word	0x20000b78

08003aec <xTaskPriorityDisinherit>:
 8003aec:	b538      	push	{r3, r4, r5, lr}
 8003aee:	b908      	cbnz	r0, 8003af4 <xTaskPriorityDisinherit+0x8>
 8003af0:	2000      	movs	r0, #0
 8003af2:	bd38      	pop	{r3, r4, r5, pc}
 8003af4:	4b1f      	ldr	r3, [pc, #124]	; (8003b74 <xTaskPriorityDisinherit+0x88>)
 8003af6:	681c      	ldr	r4, [r3, #0]
 8003af8:	4284      	cmp	r4, r0
 8003afa:	d008      	beq.n	8003b0e <xTaskPriorityDisinherit+0x22>
 8003afc:	f04f 0350 	mov.w	r3, #80	; 0x50
 8003b00:	f383 8811 	msr	BASEPRI, r3
 8003b04:	f3bf 8f6f 	isb	sy
 8003b08:	f3bf 8f4f 	dsb	sy
 8003b0c:	e7fe      	b.n	8003b0c <xTaskPriorityDisinherit+0x20>
 8003b0e:	6d23      	ldr	r3, [r4, #80]	; 0x50
 8003b10:	b943      	cbnz	r3, 8003b24 <xTaskPriorityDisinherit+0x38>
 8003b12:	f04f 0350 	mov.w	r3, #80	; 0x50
 8003b16:	f383 8811 	msr	BASEPRI, r3
 8003b1a:	f3bf 8f6f 	isb	sy
 8003b1e:	f3bf 8f4f 	dsb	sy
 8003b22:	e7fe      	b.n	8003b22 <xTaskPriorityDisinherit+0x36>
 8003b24:	6ae1      	ldr	r1, [r4, #44]	; 0x2c
 8003b26:	6ce2      	ldr	r2, [r4, #76]	; 0x4c
 8003b28:	3b01      	subs	r3, #1
 8003b2a:	4291      	cmp	r1, r2
 8003b2c:	6523      	str	r3, [r4, #80]	; 0x50
 8003b2e:	d0df      	beq.n	8003af0 <xTaskPriorityDisinherit+0x4>
 8003b30:	2b00      	cmp	r3, #0
 8003b32:	d1dd      	bne.n	8003af0 <xTaskPriorityDisinherit+0x4>
 8003b34:	1d25      	adds	r5, r4, #4
 8003b36:	4628      	mov	r0, r5
 8003b38:	f7fe fce9 	bl	800250e <uxListRemove>
 8003b3c:	4621      	mov	r1, r4
 8003b3e:	204a      	movs	r0, #74	; 0x4a
 8003b40:	f000 fffc 	bl	8004b3c <SEGGER_SYSVIEW_RecordU32>
 8003b44:	6ce3      	ldr	r3, [r4, #76]	; 0x4c
 8003b46:	62e3      	str	r3, [r4, #44]	; 0x2c
 8003b48:	f1c3 0338 	rsb	r3, r3, #56	; 0x38
 8003b4c:	61a3      	str	r3, [r4, #24]
 8003b4e:	4620      	mov	r0, r4
 8003b50:	f001 fa4c 	bl	8004fec <SEGGER_SYSVIEW_OnTaskStartReady>
 8003b54:	4a08      	ldr	r2, [pc, #32]	; (8003b78 <xTaskPriorityDisinherit+0x8c>)
 8003b56:	6ae3      	ldr	r3, [r4, #44]	; 0x2c
 8003b58:	6811      	ldr	r1, [r2, #0]
 8003b5a:	428b      	cmp	r3, r1
 8003b5c:	bf88      	it	hi
 8003b5e:	6013      	strhi	r3, [r2, #0]
 8003b60:	4a06      	ldr	r2, [pc, #24]	; (8003b7c <xTaskPriorityDisinherit+0x90>)
 8003b62:	2014      	movs	r0, #20
 8003b64:	fb00 2003 	mla	r0, r0, r3, r2
 8003b68:	4629      	mov	r1, r5
 8003b6a:	f7fe fcad 	bl	80024c8 <vListInsertEnd>
 8003b6e:	2001      	movs	r0, #1
 8003b70:	e7bf      	b.n	8003af2 <xTaskPriorityDisinherit+0x6>
 8003b72:	bf00      	nop
 8003b74:	200006f4 	.word	0x200006f4
 8003b78:	20000b78 	.word	0x20000b78
 8003b7c:	20000700 	.word	0x20000700

08003b80 <vTaskPriorityDisinheritAfterTimeout>:
 8003b80:	b570      	push	{r4, r5, r6, lr}
 8003b82:	4604      	mov	r4, r0
 8003b84:	2800      	cmp	r0, #0
 8003b86:	d048      	beq.n	8003c1a <vTaskPriorityDisinheritAfterTimeout+0x9a>
 8003b88:	6d03      	ldr	r3, [r0, #80]	; 0x50
 8003b8a:	b943      	cbnz	r3, 8003b9e <vTaskPriorityDisinheritAfterTimeout+0x1e>
 8003b8c:	f04f 0350 	mov.w	r3, #80	; 0x50
 8003b90:	f383 8811 	msr	BASEPRI, r3
 8003b94:	f3bf 8f6f 	isb	sy
 8003b98:	f3bf 8f4f 	dsb	sy
 8003b9c:	e7fe      	b.n	8003b9c <vTaskPriorityDisinheritAfterTimeout+0x1c>
 8003b9e:	6cc5      	ldr	r5, [r0, #76]	; 0x4c
 8003ba0:	6ac2      	ldr	r2, [r0, #44]	; 0x2c
 8003ba2:	428d      	cmp	r5, r1
 8003ba4:	bf38      	it	cc
 8003ba6:	460d      	movcc	r5, r1
 8003ba8:	42aa      	cmp	r2, r5
 8003baa:	d036      	beq.n	8003c1a <vTaskPriorityDisinheritAfterTimeout+0x9a>
 8003bac:	2b01      	cmp	r3, #1
 8003bae:	d134      	bne.n	8003c1a <vTaskPriorityDisinheritAfterTimeout+0x9a>
 8003bb0:	4b1a      	ldr	r3, [pc, #104]	; (8003c1c <vTaskPriorityDisinheritAfterTimeout+0x9c>)
 8003bb2:	681b      	ldr	r3, [r3, #0]
 8003bb4:	4283      	cmp	r3, r0
 8003bb6:	d108      	bne.n	8003bca <vTaskPriorityDisinheritAfterTimeout+0x4a>
 8003bb8:	f04f 0350 	mov.w	r3, #80	; 0x50
 8003bbc:	f383 8811 	msr	BASEPRI, r3
 8003bc0:	f3bf 8f6f 	isb	sy
 8003bc4:	f3bf 8f4f 	dsb	sy
 8003bc8:	e7fe      	b.n	8003bc8 <vTaskPriorityDisinheritAfterTimeout+0x48>
 8003bca:	4601      	mov	r1, r0
 8003bcc:	204a      	movs	r0, #74	; 0x4a
 8003bce:	f000 ffb5 	bl	8004b3c <SEGGER_SYSVIEW_RecordU32>
 8003bd2:	69a2      	ldr	r2, [r4, #24]
 8003bd4:	6ae3      	ldr	r3, [r4, #44]	; 0x2c
 8003bd6:	62e5      	str	r5, [r4, #44]	; 0x2c
 8003bd8:	2a00      	cmp	r2, #0
 8003bda:	bfa4      	itt	ge
 8003bdc:	f1c5 0538 	rsbge	r5, r5, #56	; 0x38
 8003be0:	61a5      	strge	r5, [r4, #24]
 8003be2:	4d0f      	ldr	r5, [pc, #60]	; (8003c20 <vTaskPriorityDisinheritAfterTimeout+0xa0>)
 8003be4:	2214      	movs	r2, #20
 8003be6:	fb02 5303 	mla	r3, r2, r3, r5
 8003bea:	6962      	ldr	r2, [r4, #20]
 8003bec:	429a      	cmp	r2, r3
 8003bee:	d114      	bne.n	8003c1a <vTaskPriorityDisinheritAfterTimeout+0x9a>
 8003bf0:	1d26      	adds	r6, r4, #4
 8003bf2:	4630      	mov	r0, r6
 8003bf4:	f7fe fc8b 	bl	800250e <uxListRemove>
 8003bf8:	4620      	mov	r0, r4
 8003bfa:	f001 f9f7 	bl	8004fec <SEGGER_SYSVIEW_OnTaskStartReady>
 8003bfe:	4a09      	ldr	r2, [pc, #36]	; (8003c24 <vTaskPriorityDisinheritAfterTimeout+0xa4>)
 8003c00:	6ae3      	ldr	r3, [r4, #44]	; 0x2c
 8003c02:	6811      	ldr	r1, [r2, #0]
 8003c04:	2014      	movs	r0, #20
 8003c06:	428b      	cmp	r3, r1
 8003c08:	fb00 5003 	mla	r0, r0, r3, r5
 8003c0c:	4631      	mov	r1, r6
 8003c0e:	e8bd 4070 	ldmia.w	sp!, {r4, r5, r6, lr}
 8003c12:	bf88      	it	hi
 8003c14:	6013      	strhi	r3, [r2, #0]
 8003c16:	f7fe bc57 	b.w	80024c8 <vListInsertEnd>
 8003c1a:	bd70      	pop	{r4, r5, r6, pc}
 8003c1c:	200006f4 	.word	0x200006f4
 8003c20:	20000700 	.word	0x20000700
 8003c24:	20000b78 	.word	0x20000b78

08003c28 <pvTaskIncrementMutexHeldCount>:
 8003c28:	4b04      	ldr	r3, [pc, #16]	; (8003c3c <pvTaskIncrementMutexHeldCount+0x14>)
 8003c2a:	681a      	ldr	r2, [r3, #0]
 8003c2c:	b11a      	cbz	r2, 8003c36 <pvTaskIncrementMutexHeldCount+0xe>
 8003c2e:	6819      	ldr	r1, [r3, #0]
 8003c30:	6d0a      	ldr	r2, [r1, #80]	; 0x50
 8003c32:	3201      	adds	r2, #1
 8003c34:	650a      	str	r2, [r1, #80]	; 0x50
 8003c36:	6818      	ldr	r0, [r3, #0]
 8003c38:	4770      	bx	lr
 8003c3a:	bf00      	nop
 8003c3c:	200006f4 	.word	0x200006f4

08003c40 <prvCheckForValidListAndQueue>:
 8003c40:	b5f7      	push	{r0, r1, r2, r4, r5, r6, r7, lr}
 8003c42:	4c11      	ldr	r4, [pc, #68]	; (8003c88 <prvCheckForValidListAndQueue+0x48>)
 8003c44:	f000 fa66 	bl	8004114 <vPortEnterCritical>
 8003c48:	6825      	ldr	r5, [r4, #0]
 8003c4a:	b9bd      	cbnz	r5, 8003c7c <prvCheckForValidListAndQueue+0x3c>
 8003c4c:	4f0f      	ldr	r7, [pc, #60]	; (8003c8c <prvCheckForValidListAndQueue+0x4c>)
 8003c4e:	4e10      	ldr	r6, [pc, #64]	; (8003c90 <prvCheckForValidListAndQueue+0x50>)
 8003c50:	4638      	mov	r0, r7
 8003c52:	f7fe fc2b 	bl	80024ac <vListInitialise>
 8003c56:	4630      	mov	r0, r6
 8003c58:	f7fe fc28 	bl	80024ac <vListInitialise>
 8003c5c:	4b0d      	ldr	r3, [pc, #52]	; (8003c94 <prvCheckForValidListAndQueue+0x54>)
 8003c5e:	4a0e      	ldr	r2, [pc, #56]	; (8003c98 <prvCheckForValidListAndQueue+0x58>)
 8003c60:	601f      	str	r7, [r3, #0]
 8003c62:	4b0e      	ldr	r3, [pc, #56]	; (8003c9c <prvCheckForValidListAndQueue+0x5c>)
 8003c64:	2110      	movs	r1, #16
 8003c66:	601e      	str	r6, [r3, #0]
 8003c68:	200a      	movs	r0, #10
 8003c6a:	9500      	str	r5, [sp, #0]
 8003c6c:	4b0c      	ldr	r3, [pc, #48]	; (8003ca0 <prvCheckForValidListAndQueue+0x60>)
 8003c6e:	f7fe fd2b 	bl	80026c8 <xQueueGenericCreateStatic>
 8003c72:	6020      	str	r0, [r4, #0]
 8003c74:	b110      	cbz	r0, 8003c7c <prvCheckForValidListAndQueue+0x3c>
 8003c76:	490b      	ldr	r1, [pc, #44]	; (8003ca4 <prvCheckForValidListAndQueue+0x64>)
 8003c78:	f7ff f9a0 	bl	8002fbc <vQueueAddToRegistry>
 8003c7c:	b003      	add	sp, #12
 8003c7e:	e8bd 40f0 	ldmia.w	sp!, {r4, r5, r6, r7, lr}
 8003c82:	f000 ba69 	b.w	8004158 <vPortExitCritical>
 8003c86:	bf00      	nop
 8003c88:	20000d18 	.word	0x20000d18
 8003c8c:	20000c9c 	.word	0x20000c9c
 8003c90:	20000cb0 	.word	0x20000cb0
 8003c94:	20000bf4 	.word	0x20000bf4
 8003c98:	20000bfc 	.word	0x20000bfc
 8003c9c:	20000bf8 	.word	0x20000bf8
 8003ca0:	20000cc8 	.word	0x20000cc8
 8003ca4:	080053b9 	.word	0x080053b9

08003ca8 <prvInsertTimerInActiveList>:
 8003ca8:	4291      	cmp	r1, r2
 8003caa:	b508      	push	{r3, lr}
 8003cac:	6041      	str	r1, [r0, #4]
 8003cae:	6100      	str	r0, [r0, #16]
 8003cb0:	d80a      	bhi.n	8003cc8 <prvInsertTimerInActiveList+0x20>
 8003cb2:	1ad2      	subs	r2, r2, r3
 8003cb4:	6983      	ldr	r3, [r0, #24]
 8003cb6:	429a      	cmp	r2, r3
 8003cb8:	d20d      	bcs.n	8003cd6 <prvInsertTimerInActiveList+0x2e>
 8003cba:	4b08      	ldr	r3, [pc, #32]	; (8003cdc <prvInsertTimerInActiveList+0x34>)
 8003cbc:	1d01      	adds	r1, r0, #4
 8003cbe:	6818      	ldr	r0, [r3, #0]
 8003cc0:	f7fe fc0e 	bl	80024e0 <vListInsert>
 8003cc4:	2000      	movs	r0, #0
 8003cc6:	bd08      	pop	{r3, pc}
 8003cc8:	429a      	cmp	r2, r3
 8003cca:	d201      	bcs.n	8003cd0 <prvInsertTimerInActiveList+0x28>
 8003ccc:	4299      	cmp	r1, r3
 8003cce:	d202      	bcs.n	8003cd6 <prvInsertTimerInActiveList+0x2e>
 8003cd0:	1d01      	adds	r1, r0, #4
 8003cd2:	4b03      	ldr	r3, [pc, #12]	; (8003ce0 <prvInsertTimerInActiveList+0x38>)
 8003cd4:	e7f3      	b.n	8003cbe <prvInsertTimerInActiveList+0x16>
 8003cd6:	2001      	movs	r0, #1
 8003cd8:	e7f5      	b.n	8003cc6 <prvInsertTimerInActiveList+0x1e>
 8003cda:	bf00      	nop
 8003cdc:	20000bf8 	.word	0x20000bf8
 8003ce0:	20000bf4 	.word	0x20000bf4

08003ce4 <xTimerCreateTimerTask>:
 8003ce4:	b510      	push	{r4, lr}
 8003ce6:	b088      	sub	sp, #32
 8003ce8:	f7ff ffaa 	bl	8003c40 <prvCheckForValidListAndQueue>
 8003cec:	4b12      	ldr	r3, [pc, #72]	; (8003d38 <xTimerCreateTimerTask+0x54>)
 8003cee:	681b      	ldr	r3, [r3, #0]
 8003cf0:	b1b3      	cbz	r3, 8003d20 <xTimerCreateTimerTask+0x3c>
 8003cf2:	2400      	movs	r4, #0
 8003cf4:	aa07      	add	r2, sp, #28
 8003cf6:	a906      	add	r1, sp, #24
 8003cf8:	a805      	add	r0, sp, #20
 8003cfa:	e9cd 4405 	strd	r4, r4, [sp, #20]
 8003cfe:	f7fe fbc9 	bl	8002494 <vApplicationGetTimerTaskMemory>
 8003d02:	9b05      	ldr	r3, [sp, #20]
 8003d04:	9302      	str	r3, [sp, #8]
 8003d06:	9b06      	ldr	r3, [sp, #24]
 8003d08:	9301      	str	r3, [sp, #4]
 8003d0a:	2302      	movs	r3, #2
 8003d0c:	9300      	str	r3, [sp, #0]
 8003d0e:	9a07      	ldr	r2, [sp, #28]
 8003d10:	490a      	ldr	r1, [pc, #40]	; (8003d3c <xTimerCreateTimerTask+0x58>)
 8003d12:	480b      	ldr	r0, [pc, #44]	; (8003d40 <xTimerCreateTimerTask+0x5c>)
 8003d14:	4623      	mov	r3, r4
 8003d16:	f7ff fb41 	bl	800339c <xTaskCreateStatic>
 8003d1a:	4b0a      	ldr	r3, [pc, #40]	; (8003d44 <xTimerCreateTimerTask+0x60>)
 8003d1c:	6018      	str	r0, [r3, #0]
 8003d1e:	b940      	cbnz	r0, 8003d32 <xTimerCreateTimerTask+0x4e>
 8003d20:	f04f 0350 	mov.w	r3, #80	; 0x50
 8003d24:	f383 8811 	msr	BASEPRI, r3
 8003d28:	f3bf 8f6f 	isb	sy
 8003d2c:	f3bf 8f4f 	dsb	sy
 8003d30:	e7fe      	b.n	8003d30 <xTimerCreateTimerTask+0x4c>
 8003d32:	2001      	movs	r0, #1
 8003d34:	b008      	add	sp, #32
 8003d36:	bd10      	pop	{r4, pc}
 8003d38:	20000d18 	.word	0x20000d18
 8003d3c:	080053be 	.word	0x080053be
 8003d40:	08003e21 	.word	0x08003e21
 8003d44:	20000d1c 	.word	0x20000d1c

08003d48 <xTimerGenericCommand>:
 8003d48:	b530      	push	{r4, r5, lr}
 8003d4a:	4615      	mov	r5, r2
 8003d4c:	b085      	sub	sp, #20
 8003d4e:	461a      	mov	r2, r3
 8003d50:	4603      	mov	r3, r0
 8003d52:	b940      	cbnz	r0, 8003d66 <xTimerGenericCommand+0x1e>
 8003d54:	f04f 0350 	mov.w	r3, #80	; 0x50
 8003d58:	f383 8811 	msr	BASEPRI, r3
 8003d5c:	f3bf 8f6f 	isb	sy
 8003d60:	f3bf 8f4f 	dsb	sy
 8003d64:	e7fe      	b.n	8003d64 <xTimerGenericCommand+0x1c>
 8003d66:	4c0d      	ldr	r4, [pc, #52]	; (8003d9c <xTimerGenericCommand+0x54>)
 8003d68:	6820      	ldr	r0, [r4, #0]
 8003d6a:	b180      	cbz	r0, 8003d8e <xTimerGenericCommand+0x46>
 8003d6c:	2905      	cmp	r1, #5
 8003d6e:	e9cd 1500 	strd	r1, r5, [sp]
 8003d72:	9302      	str	r3, [sp, #8]
 8003d74:	dc0d      	bgt.n	8003d92 <xTimerGenericCommand+0x4a>
 8003d76:	f7ff fe61 	bl	8003a3c <xTaskGetSchedulerState>
 8003d7a:	2300      	movs	r3, #0
 8003d7c:	2802      	cmp	r0, #2
 8003d7e:	bf08      	it	eq
 8003d80:	9a08      	ldreq	r2, [sp, #32]
 8003d82:	6820      	ldr	r0, [r4, #0]
 8003d84:	bf18      	it	ne
 8003d86:	461a      	movne	r2, r3
 8003d88:	4669      	mov	r1, sp
 8003d8a:	f7fe fd5f 	bl	800284c <xQueueGenericSend>
 8003d8e:	b005      	add	sp, #20
 8003d90:	bd30      	pop	{r4, r5, pc}
 8003d92:	2300      	movs	r3, #0
 8003d94:	4669      	mov	r1, sp
 8003d96:	f7fe fe1f 	bl	80029d8 <xQueueGenericSendFromISR>
 8003d9a:	e7f8      	b.n	8003d8e <xTimerGenericCommand+0x46>
 8003d9c:	20000d18 	.word	0x20000d18

08003da0 <prvSwitchTimerLists>:
 8003da0:	e92d 41f3 	stmdb	sp!, {r0, r1, r4, r5, r6, r7, r8, lr}
 8003da4:	4d1c      	ldr	r5, [pc, #112]	; (8003e18 <prvSwitchTimerLists+0x78>)
 8003da6:	f04f 0800 	mov.w	r8, #0
 8003daa:	682b      	ldr	r3, [r5, #0]
 8003dac:	681a      	ldr	r2, [r3, #0]
 8003dae:	b932      	cbnz	r2, 8003dbe <prvSwitchTimerLists+0x1e>
 8003db0:	4a1a      	ldr	r2, [pc, #104]	; (8003e1c <prvSwitchTimerLists+0x7c>)
 8003db2:	6811      	ldr	r1, [r2, #0]
 8003db4:	6029      	str	r1, [r5, #0]
 8003db6:	6013      	str	r3, [r2, #0]
 8003db8:	b002      	add	sp, #8
 8003dba:	e8bd 81f0 	ldmia.w	sp!, {r4, r5, r6, r7, r8, pc}
 8003dbe:	68db      	ldr	r3, [r3, #12]
 8003dc0:	68dc      	ldr	r4, [r3, #12]
 8003dc2:	681e      	ldr	r6, [r3, #0]
 8003dc4:	1d27      	adds	r7, r4, #4
 8003dc6:	4638      	mov	r0, r7
 8003dc8:	f7fe fba1 	bl	800250e <uxListRemove>
 8003dcc:	6a23      	ldr	r3, [r4, #32]
 8003dce:	4620      	mov	r0, r4
 8003dd0:	4798      	blx	r3
 8003dd2:	f894 3028 	ldrb.w	r3, [r4, #40]	; 0x28
 8003dd6:	075b      	lsls	r3, r3, #29
 8003dd8:	d5e7      	bpl.n	8003daa <prvSwitchTimerLists+0xa>
 8003dda:	69a3      	ldr	r3, [r4, #24]
 8003ddc:	4433      	add	r3, r6
 8003dde:	429e      	cmp	r6, r3
 8003de0:	d206      	bcs.n	8003df0 <prvSwitchTimerLists+0x50>
 8003de2:	6063      	str	r3, [r4, #4]
 8003de4:	6124      	str	r4, [r4, #16]
 8003de6:	4639      	mov	r1, r7
 8003de8:	6828      	ldr	r0, [r5, #0]
 8003dea:	f7fe fb79 	bl	80024e0 <vListInsert>
 8003dee:	e7dc      	b.n	8003daa <prvSwitchTimerLists+0xa>
 8003df0:	2300      	movs	r3, #0
 8003df2:	f8cd 8000 	str.w	r8, [sp]
 8003df6:	4632      	mov	r2, r6
 8003df8:	4619      	mov	r1, r3
 8003dfa:	4620      	mov	r0, r4
 8003dfc:	f7ff ffa4 	bl	8003d48 <xTimerGenericCommand>
 8003e00:	2800      	cmp	r0, #0
 8003e02:	d1d2      	bne.n	8003daa <prvSwitchTimerLists+0xa>
 8003e04:	f04f 0350 	mov.w	r3, #80	; 0x50
 8003e08:	f383 8811 	msr	BASEPRI, r3
 8003e0c:	f3bf 8f6f 	isb	sy
 8003e10:	f3bf 8f4f 	dsb	sy
 8003e14:	e7fe      	b.n	8003e14 <prvSwitchTimerLists+0x74>
 8003e16:	bf00      	nop
 8003e18:	20000bf4 	.word	0x20000bf4
 8003e1c:	20000bf8 	.word	0x20000bf8

08003e20 <prvTimerTask>:
 8003e20:	e92d 4ff0 	stmdb	sp!, {r4, r5, r6, r7, r8, r9, sl, fp, lr}
 8003e24:	4d81      	ldr	r5, [pc, #516]	; (800402c <prvTimerTask+0x20c>)
 8003e26:	f8df 8210 	ldr.w	r8, [pc, #528]	; 8004038 <prvTimerTask+0x218>
 8003e2a:	b087      	sub	sp, #28
 8003e2c:	462f      	mov	r7, r5
 8003e2e:	682a      	ldr	r2, [r5, #0]
 8003e30:	6813      	ldr	r3, [r2, #0]
 8003e32:	b353      	cbz	r3, 8003e8a <prvTimerTask+0x6a>
 8003e34:	68d3      	ldr	r3, [r2, #12]
 8003e36:	f8d3 9000 	ldr.w	r9, [r3]
 8003e3a:	2400      	movs	r4, #0
 8003e3c:	f8df b1fc 	ldr.w	fp, [pc, #508]	; 800403c <prvTimerTask+0x21c>
 8003e40:	f7ff fb68 	bl	8003514 <vTaskSuspendAll>
 8003e44:	f7ff fb6e 	bl	8003524 <xTaskGetTickCount>
 8003e48:	f8db 3000 	ldr.w	r3, [fp]
 8003e4c:	4298      	cmp	r0, r3
 8003e4e:	4682      	mov	sl, r0
 8003e50:	465e      	mov	r6, fp
 8003e52:	d31d      	bcc.n	8003e90 <prvTimerTask+0x70>
 8003e54:	f8cb 0000 	str.w	r0, [fp]
 8003e58:	b32c      	cbz	r4, 8003ea6 <prvTimerTask+0x86>
 8003e5a:	4b75      	ldr	r3, [pc, #468]	; (8004030 <prvTimerTask+0x210>)
 8003e5c:	681b      	ldr	r3, [r3, #0]
 8003e5e:	681a      	ldr	r2, [r3, #0]
 8003e60:	fab2 f282 	clz	r2, r2
 8003e64:	0952      	lsrs	r2, r2, #5
 8003e66:	4b73      	ldr	r3, [pc, #460]	; (8004034 <prvTimerTask+0x214>)
 8003e68:	eba9 010a 	sub.w	r1, r9, sl
 8003e6c:	6818      	ldr	r0, [r3, #0]
 8003e6e:	f7ff f8f3 	bl	8003058 <vQueueWaitForMessageRestricted>
 8003e72:	f7ff fbf9 	bl	8003668 <xTaskResumeAll>
 8003e76:	b988      	cbnz	r0, 8003e9c <prvTimerTask+0x7c>
 8003e78:	f04f 5380 	mov.w	r3, #268435456	; 0x10000000
 8003e7c:	f8c8 3000 	str.w	r3, [r8]
 8003e80:	f3bf 8f4f 	dsb	sy
 8003e84:	f3bf 8f6f 	isb	sy
 8003e88:	e008      	b.n	8003e9c <prvTimerTask+0x7c>
 8003e8a:	2401      	movs	r4, #1
 8003e8c:	4699      	mov	r9, r3
 8003e8e:	e7d5      	b.n	8003e3c <prvTimerTask+0x1c>
 8003e90:	f7ff ff86 	bl	8003da0 <prvSwitchTimerLists>
 8003e94:	f8cb a000 	str.w	sl, [fp]
 8003e98:	f7ff fbe6 	bl	8003668 <xTaskResumeAll>
 8003e9c:	f8df 9194 	ldr.w	r9, [pc, #404]	; 8004034 <prvTimerTask+0x214>
 8003ea0:	f04f 0a00 	mov.w	sl, #0
 8003ea4:	e07d      	b.n	8003fa2 <prvTimerTask+0x182>
 8003ea6:	4581      	cmp	r9, r0
 8003ea8:	d830      	bhi.n	8003f0c <prvTimerTask+0xec>
 8003eaa:	f7ff fbdd 	bl	8003668 <xTaskResumeAll>
 8003eae:	683b      	ldr	r3, [r7, #0]
 8003eb0:	68db      	ldr	r3, [r3, #12]
 8003eb2:	f8d3 b00c 	ldr.w	fp, [r3, #12]
 8003eb6:	f10b 0004 	add.w	r0, fp, #4
 8003eba:	f7fe fb28 	bl	800250e <uxListRemove>
 8003ebe:	f89b 3028 	ldrb.w	r3, [fp, #40]	; 0x28
 8003ec2:	0758      	lsls	r0, r3, #29
 8003ec4:	d519      	bpl.n	8003efa <prvTimerTask+0xda>
 8003ec6:	f8db 1018 	ldr.w	r1, [fp, #24]
 8003eca:	464b      	mov	r3, r9
 8003ecc:	4652      	mov	r2, sl
 8003ece:	4449      	add	r1, r9
 8003ed0:	4658      	mov	r0, fp
 8003ed2:	f7ff fee9 	bl	8003ca8 <prvInsertTimerInActiveList>
 8003ed6:	b1a0      	cbz	r0, 8003f02 <prvTimerTask+0xe2>
 8003ed8:	9400      	str	r4, [sp, #0]
 8003eda:	4623      	mov	r3, r4
 8003edc:	464a      	mov	r2, r9
 8003ede:	4621      	mov	r1, r4
 8003ee0:	4658      	mov	r0, fp
 8003ee2:	f7ff ff31 	bl	8003d48 <xTimerGenericCommand>
 8003ee6:	b960      	cbnz	r0, 8003f02 <prvTimerTask+0xe2>
 8003ee8:	f04f 0350 	mov.w	r3, #80	; 0x50
 8003eec:	f383 8811 	msr	BASEPRI, r3
 8003ef0:	f3bf 8f6f 	isb	sy
 8003ef4:	f3bf 8f4f 	dsb	sy
 8003ef8:	e7fe      	b.n	8003ef8 <prvTimerTask+0xd8>
 8003efa:	f023 0301 	bic.w	r3, r3, #1
 8003efe:	f88b 3028 	strb.w	r3, [fp, #40]	; 0x28
 8003f02:	f8db 3020 	ldr.w	r3, [fp, #32]
 8003f06:	4658      	mov	r0, fp
 8003f08:	4798      	blx	r3
 8003f0a:	e7c7      	b.n	8003e9c <prvTimerTask+0x7c>
 8003f0c:	4622      	mov	r2, r4
 8003f0e:	e7aa      	b.n	8003e66 <prvTimerTask+0x46>
 8003f10:	f894 3028 	ldrb.w	r3, [r4, #40]	; 0x28
 8003f14:	69a1      	ldr	r1, [r4, #24]
 8003f16:	f043 0301 	orr.w	r3, r3, #1
 8003f1a:	f884 3028 	strb.w	r3, [r4, #40]	; 0x28
 8003f1e:	9b03      	ldr	r3, [sp, #12]
 8003f20:	465a      	mov	r2, fp
 8003f22:	4419      	add	r1, r3
 8003f24:	4620      	mov	r0, r4
 8003f26:	f7ff febf 	bl	8003ca8 <prvInsertTimerInActiveList>
 8003f2a:	2800      	cmp	r0, #0
 8003f2c:	d039      	beq.n	8003fa2 <prvTimerTask+0x182>
 8003f2e:	6a23      	ldr	r3, [r4, #32]
 8003f30:	4620      	mov	r0, r4
 8003f32:	4798      	blx	r3
 8003f34:	f894 3028 	ldrb.w	r3, [r4, #40]	; 0x28
 8003f38:	0759      	lsls	r1, r3, #29
 8003f3a:	d532      	bpl.n	8003fa2 <prvTimerTask+0x182>
 8003f3c:	69a2      	ldr	r2, [r4, #24]
 8003f3e:	9903      	ldr	r1, [sp, #12]
 8003f40:	f8cd a000 	str.w	sl, [sp]
 8003f44:	2300      	movs	r3, #0
 8003f46:	440a      	add	r2, r1
 8003f48:	4620      	mov	r0, r4
 8003f4a:	4619      	mov	r1, r3
 8003f4c:	f7ff fefc 	bl	8003d48 <xTimerGenericCommand>
 8003f50:	bb38      	cbnz	r0, 8003fa2 <prvTimerTask+0x182>
 8003f52:	f04f 0350 	mov.w	r3, #80	; 0x50
 8003f56:	f383 8811 	msr	BASEPRI, r3
 8003f5a:	f3bf 8f6f 	isb	sy
 8003f5e:	f3bf 8f4f 	dsb	sy
 8003f62:	e7fe      	b.n	8003f62 <prvTimerTask+0x142>
 8003f64:	f894 3028 	ldrb.w	r3, [r4, #40]	; 0x28
 8003f68:	f023 0301 	bic.w	r3, r3, #1
 8003f6c:	f884 3028 	strb.w	r3, [r4, #40]	; 0x28
 8003f70:	e017      	b.n	8003fa2 <prvTimerTask+0x182>
 8003f72:	f894 3028 	ldrb.w	r3, [r4, #40]	; 0x28
 8003f76:	9903      	ldr	r1, [sp, #12]
 8003f78:	61a1      	str	r1, [r4, #24]
 8003f7a:	f043 0301 	orr.w	r3, r3, #1
 8003f7e:	f884 3028 	strb.w	r3, [r4, #40]	; 0x28
 8003f82:	b941      	cbnz	r1, 8003f96 <prvTimerTask+0x176>
 8003f84:	f04f 0350 	mov.w	r3, #80	; 0x50
 8003f88:	f383 8811 	msr	BASEPRI, r3
 8003f8c:	f3bf 8f6f 	isb	sy
 8003f90:	f3bf 8f4f 	dsb	sy
 8003f94:	e7fe      	b.n	8003f94 <prvTimerTask+0x174>
 8003f96:	465b      	mov	r3, fp
 8003f98:	465a      	mov	r2, fp
 8003f9a:	4459      	add	r1, fp
 8003f9c:	4620      	mov	r0, r4
 8003f9e:	f7ff fe83 	bl	8003ca8 <prvInsertTimerInActiveList>
 8003fa2:	2200      	movs	r2, #0
 8003fa4:	a902      	add	r1, sp, #8
 8003fa6:	f8d9 0000 	ldr.w	r0, [r9]
 8003faa:	f7fe fdef 	bl	8002b8c <xQueueReceive>
 8003fae:	2800      	cmp	r0, #0
 8003fb0:	f43f af3d 	beq.w	8003e2e <prvTimerTask+0xe>
 8003fb4:	9b02      	ldr	r3, [sp, #8]
 8003fb6:	2b00      	cmp	r3, #0
 8003fb8:	da03      	bge.n	8003fc2 <prvTimerTask+0x1a2>
 8003fba:	e9dd 0104 	ldrd	r0, r1, [sp, #16]
 8003fbe:	9b03      	ldr	r3, [sp, #12]
 8003fc0:	4798      	blx	r3
 8003fc2:	9b02      	ldr	r3, [sp, #8]
 8003fc4:	2b00      	cmp	r3, #0
 8003fc6:	dbec      	blt.n	8003fa2 <prvTimerTask+0x182>
 8003fc8:	9c04      	ldr	r4, [sp, #16]
 8003fca:	6963      	ldr	r3, [r4, #20]
 8003fcc:	b113      	cbz	r3, 8003fd4 <prvTimerTask+0x1b4>
 8003fce:	1d20      	adds	r0, r4, #4
 8003fd0:	f7fe fa9d 	bl	800250e <uxListRemove>
 8003fd4:	f7ff faa6 	bl	8003524 <xTaskGetTickCount>
 8003fd8:	6833      	ldr	r3, [r6, #0]
 8003fda:	4298      	cmp	r0, r3
 8003fdc:	4683      	mov	fp, r0
 8003fde:	d201      	bcs.n	8003fe4 <prvTimerTask+0x1c4>
 8003fe0:	f7ff fede 	bl	8003da0 <prvSwitchTimerLists>
 8003fe4:	9b02      	ldr	r3, [sp, #8]
 8003fe6:	f8c6 b000 	str.w	fp, [r6]
 8003fea:	2b09      	cmp	r3, #9
 8003fec:	d8d9      	bhi.n	8003fa2 <prvTimerTask+0x182>
 8003fee:	a201      	add	r2, pc, #4	; (adr r2, 8003ff4 <prvTimerTask+0x1d4>)
 8003ff0:	f852 f023 	ldr.w	pc, [r2, r3, lsl #2]
 8003ff4:	08003f11 	.word	0x08003f11
 8003ff8:	08003f11 	.word	0x08003f11
 8003ffc:	08003f11 	.word	0x08003f11
 8004000:	08003f65 	.word	0x08003f65
 8004004:	08003f73 	.word	0x08003f73
 8004008:	0800401d 	.word	0x0800401d
 800400c:	08003f11 	.word	0x08003f11
 8004010:	08003f11 	.word	0x08003f11
 8004014:	08003f65 	.word	0x08003f65
 8004018:	08003f73 	.word	0x08003f73
 800401c:	f894 3028 	ldrb.w	r3, [r4, #40]	; 0x28
 8004020:	079a      	lsls	r2, r3, #30
 8004022:	d4a1      	bmi.n	8003f68 <prvTimerTask+0x148>
 8004024:	4620      	mov	r0, r4
 8004026:	f000 fa71 	bl	800450c <vPortFree>
 800402a:	e7ba      	b.n	8003fa2 <prvTimerTask+0x182>
 800402c:	20000bf4 	.word	0x20000bf4
 8004030:	20000bf8 	.word	0x20000bf8
 8004034:	20000d18 	.word	0x20000d18
 8004038:	e000ed04 	.word	0xe000ed04
 800403c:	20000cc4 	.word	0x20000cc4

08004040 <prvTaskExitError>:
 8004040:	b082      	sub	sp, #8
 8004042:	2300      	movs	r3, #0
 8004044:	9301      	str	r3, [sp, #4]
 8004046:	4b0d      	ldr	r3, [pc, #52]	; (800407c <prvTaskExitError+0x3c>)
 8004048:	681b      	ldr	r3, [r3, #0]
 800404a:	3301      	adds	r3, #1
 800404c:	d008      	beq.n	8004060 <prvTaskExitError+0x20>
 800404e:	f04f 0350 	mov.w	r3, #80	; 0x50
 8004052:	f383 8811 	msr	BASEPRI, r3
 8004056:	f3bf 8f6f 	isb	sy
 800405a:	f3bf 8f4f 	dsb	sy
 800405e:	e7fe      	b.n	800405e <prvTaskExitError+0x1e>
 8004060:	f04f 0350 	mov.w	r3, #80	; 0x50
 8004064:	f383 8811 	msr	BASEPRI, r3
 8004068:	f3bf 8f6f 	isb	sy
 800406c:	f3bf 8f4f 	dsb	sy
 8004070:	9b01      	ldr	r3, [sp, #4]
 8004072:	2b00      	cmp	r3, #0
 8004074:	d0fc      	beq.n	8004070 <prvTaskExitError+0x30>
 8004076:	b002      	add	sp, #8
 8004078:	4770      	bx	lr
 800407a:	bf00      	nop
 800407c:	2000000c 	.word	0x2000000c

08004080 <prvPortStartFirstTask>:
 8004080:	4808      	ldr	r0, [pc, #32]	; (80040a4 <prvPortStartFirstTask+0x24>)
 8004082:	6800      	ldr	r0, [r0, #0]
 8004084:	6800      	ldr	r0, [r0, #0]
 8004086:	f380 8808 	msr	MSP, r0
 800408a:	f04f 0000 	mov.w	r0, #0
 800408e:	f380 8814 	msr	CONTROL, r0
 8004092:	b662      	cpsie	i
 8004094:	b661      	cpsie	f
 8004096:	f3bf 8f4f 	dsb	sy
 800409a:	f3bf 8f6f 	isb	sy
 800409e:	df00      	svc	0
 80040a0:	bf00      	nop
 80040a2:	0000      	.short	0x0000
 80040a4:	e000ed08 	.word	0xe000ed08

080040a8 <vPortEnableVFP>:
 80040a8:	f8df 000c 	ldr.w	r0, [pc, #12]	; 80040b8 <vPortEnableVFP+0x10>
 80040ac:	6801      	ldr	r1, [r0, #0]
 80040ae:	f441 0170 	orr.w	r1, r1, #15728640	; 0xf00000
 80040b2:	6001      	str	r1, [r0, #0]
 80040b4:	4770      	bx	lr
 80040b6:	0000      	.short	0x0000
 80040b8:	e000ed88 	.word	0xe000ed88

080040bc <pxPortInitialiseStack>:
 80040bc:	f04f 7380 	mov.w	r3, #16777216	; 0x1000000
 80040c0:	f840 3c04 	str.w	r3, [r0, #-4]
 80040c4:	4b07      	ldr	r3, [pc, #28]	; (80040e4 <pxPortInitialiseStack+0x28>)
 80040c6:	f840 3c0c 	str.w	r3, [r0, #-12]
 80040ca:	f021 0101 	bic.w	r1, r1, #1
 80040ce:	f06f 0302 	mvn.w	r3, #2
 80040d2:	f840 1c08 	str.w	r1, [r0, #-8]
 80040d6:	f840 2c20 	str.w	r2, [r0, #-32]
 80040da:	f840 3c24 	str.w	r3, [r0, #-36]
 80040de:	3844      	subs	r0, #68	; 0x44
 80040e0:	4770      	bx	lr
 80040e2:	bf00      	nop
 80040e4:	08004041 	.word	0x08004041
	...

080040f0 <SVC_Handler>:
 80040f0:	4b07      	ldr	r3, [pc, #28]	; (8004110 <pxCurrentTCBConst2>)
 80040f2:	6819      	ldr	r1, [r3, #0]
 80040f4:	6808      	ldr	r0, [r1, #0]
 80040f6:	e8b0 4ff0 	ldmia.w	r0!, {r4, r5, r6, r7, r8, r9, sl, fp, lr}
 80040fa:	f380 8809 	msr	PSP, r0
 80040fe:	f3bf 8f6f 	isb	sy
 8004102:	f04f 0000 	mov.w	r0, #0
 8004106:	f380 8811 	msr	BASEPRI, r0
 800410a:	4770      	bx	lr
 800410c:	f3af 8000 	nop.w

08004110 <pxCurrentTCBConst2>:
 8004110:	200006f4 	.word	0x200006f4

08004114 <vPortEnterCritical>:
 8004114:	f04f 0350 	mov.w	r3, #80	; 0x50
 8004118:	f383 8811 	msr	BASEPRI, r3
 800411c:	f3bf 8f6f 	isb	sy
 8004120:	f3bf 8f4f 	dsb	sy
 8004124:	4a0a      	ldr	r2, [pc, #40]	; (8004150 <vPortEnterCritical+0x3c>)
 8004126:	6813      	ldr	r3, [r2, #0]
 8004128:	3301      	adds	r3, #1
 800412a:	2b01      	cmp	r3, #1
 800412c:	6013      	str	r3, [r2, #0]
 800412e:	d10d      	bne.n	800414c <vPortEnterCritical+0x38>
 8004130:	4b08      	ldr	r3, [pc, #32]	; (8004154 <vPortEnterCritical+0x40>)
 8004132:	681b      	ldr	r3, [r3, #0]
 8004134:	f013 0fff 	tst.w	r3, #255	; 0xff
 8004138:	d008      	beq.n	800414c <vPortEnterCritical+0x38>
 800413a:	f04f 0350 	mov.w	r3, #80	; 0x50
 800413e:	f383 8811 	msr	BASEPRI, r3
 8004142:	f3bf 8f6f 	isb	sy
 8004146:	f3bf 8f4f 	dsb	sy
 800414a:	e7fe      	b.n	800414a <vPortEnterCritical+0x36>
 800414c:	4770      	bx	lr
 800414e:	bf00      	nop
 8004150:	2000000c 	.word	0x2000000c
 8004154:	e000ed04 	.word	0xe000ed04

08004158 <vPortExitCritical>:
 8004158:	4a08      	ldr	r2, [pc, #32]	; (800417c <vPortExitCritical+0x24>)
 800415a:	6813      	ldr	r3, [r2, #0]
 800415c:	b943      	cbnz	r3, 8004170 <vPortExitCritical+0x18>
 800415e:	f04f 0350 	mov.w	r3, #80	; 0x50
 8004162:	f383 8811 	msr	BASEPRI, r3
 8004166:	f3bf 8f6f 	isb	sy
 800416a:	f3bf 8f4f 	dsb	sy
 800416e:	e7fe      	b.n	800416e <vPortExitCritical+0x16>
 8004170:	3b01      	subs	r3, #1
 8004172:	6013      	str	r3, [r2, #0]
 8004174:	b90b      	cbnz	r3, 800417a <vPortExitCritical+0x22>
 8004176:	f383 8811 	msr	BASEPRI, r3
 800417a:	4770      	bx	lr
 800417c:	2000000c 	.word	0x2000000c

08004180 <PendSV_Handler>:
 8004180:	f3ef 8009 	mrs	r0, PSP
 8004184:	f3bf 8f6f 	isb	sy
 8004188:	4b15      	ldr	r3, [pc, #84]	; (80041e0 <pxCurrentTCBConst>)
 800418a:	681a      	ldr	r2, [r3, #0]
 800418c:	f01e 0f10 	tst.w	lr, #16
 8004190:	bf08      	it	eq
 8004192:	ed20 8a10 	vstmdbeq	r0!, {s16-s31}
 8004196:	e920 4ff0 	stmdb	r0!, {r4, r5, r6, r7, r8, r9, sl, fp, lr}
 800419a:	6010      	str	r0, [r2, #0]
 800419c:	e92d 0009 	stmdb	sp!, {r0, r3}
 80041a0:	f04f 0050 	mov.w	r0, #80	; 0x50
 80041a4:	f380 8811 	msr	BASEPRI, r0
 80041a8:	f3bf 8f4f 	dsb	sy
 80041ac:	f3bf 8f6f 	isb	sy
 80041b0:	f7ff fafe 	bl	80037b0 <vTaskSwitchContext>
 80041b4:	f04f 0000 	mov.w	r0, #0
 80041b8:	f380 8811 	msr	BASEPRI, r0
 80041bc:	bc09      	pop	{r0, r3}
 80041be:	6819      	ldr	r1, [r3, #0]
 80041c0:	6808      	ldr	r0, [r1, #0]
 80041c2:	e8b0 4ff0 	ldmia.w	r0!, {r4, r5, r6, r7, r8, r9, sl, fp, lr}
 80041c6:	f01e 0f10 	tst.w	lr, #16
 80041ca:	bf08      	it	eq
 80041cc:	ecb0 8a10 	vldmiaeq	r0!, {s16-s31}
 80041d0:	f380 8809 	msr	PSP, r0
 80041d4:	f3bf 8f6f 	isb	sy
 80041d8:	4770      	bx	lr
 80041da:	bf00      	nop
 80041dc:	f3af 8000 	nop.w

080041e0 <pxCurrentTCBConst>:
 80041e0:	200006f4 	.word	0x200006f4

080041e4 <SysTick_Handler>:
 80041e4:	b508      	push	{r3, lr}
 80041e6:	f04f 0350 	mov.w	r3, #80	; 0x50
 80041ea:	f383 8811 	msr	BASEPRI, r3
 80041ee:	f3bf 8f6f 	isb	sy
 80041f2:	f3bf 8f4f 	dsb	sy
 80041f6:	f7ff f9a3 	bl	8003540 <xTaskIncrementTick>
 80041fa:	b118      	cbz	r0, 8004204 <SysTick_Handler+0x20>
 80041fc:	4b03      	ldr	r3, [pc, #12]	; (800420c <SysTick_Handler+0x28>)
 80041fe:	f04f 5280 	mov.w	r2, #268435456	; 0x10000000
 8004202:	601a      	str	r2, [r3, #0]
 8004204:	2300      	movs	r3, #0
 8004206:	f383 8811 	msr	BASEPRI, r3
 800420a:	bd08      	pop	{r3, pc}
 800420c:	e000ed04 	.word	0xe000ed04

08004210 <vPortSetupTimerInterrupt>:
 8004210:	4a08      	ldr	r2, [pc, #32]	; (8004234 <vPortSetupTimerInterrupt+0x24>)
 8004212:	4909      	ldr	r1, [pc, #36]	; (8004238 <vPortSetupTimerInterrupt+0x28>)
 8004214:	2300      	movs	r3, #0
 8004216:	6013      	str	r3, [r2, #0]
 8004218:	600b      	str	r3, [r1, #0]
 800421a:	4b08      	ldr	r3, [pc, #32]	; (800423c <vPortSetupTimerInterrupt+0x2c>)
 800421c:	f44f 717a 	mov.w	r1, #1000	; 0x3e8
 8004220:	681b      	ldr	r3, [r3, #0]
 8004222:	fbb3 f3f1 	udiv	r3, r3, r1
 8004226:	4906      	ldr	r1, [pc, #24]	; (8004240 <vPortSetupTimerInterrupt+0x30>)
 8004228:	3b01      	subs	r3, #1
 800422a:	600b      	str	r3, [r1, #0]
 800422c:	2307      	movs	r3, #7
 800422e:	6013      	str	r3, [r2, #0]
 8004230:	4770      	bx	lr
 8004232:	bf00      	nop
 8004234:	e000e010 	.word	0xe000e010
 8004238:	e000e018 	.word	0xe000e018
 800423c:	20000000 	.word	0x20000000
 8004240:	e000e014 	.word	0xe000e014

08004244 <xPortStartScheduler>:
 8004244:	4b39      	ldr	r3, [pc, #228]	; (800432c <xPortStartScheduler+0xe8>)
 8004246:	4a3a      	ldr	r2, [pc, #232]	; (8004330 <xPortStartScheduler+0xec>)
 8004248:	b513      	push	{r0, r1, r4, lr}
 800424a:	6819      	ldr	r1, [r3, #0]
 800424c:	4291      	cmp	r1, r2
 800424e:	d108      	bne.n	8004262 <xPortStartScheduler+0x1e>
 8004250:	f04f 0350 	mov.w	r3, #80	; 0x50
 8004254:	f383 8811 	msr	BASEPRI, r3
 8004258:	f3bf 8f6f 	isb	sy
 800425c:	f3bf 8f4f 	dsb	sy
 8004260:	e7fe      	b.n	8004260 <xPortStartScheduler+0x1c>
 8004262:	681a      	ldr	r2, [r3, #0]
 8004264:	4b33      	ldr	r3, [pc, #204]	; (8004334 <xPortStartScheduler+0xf0>)
 8004266:	429a      	cmp	r2, r3
 8004268:	d108      	bne.n	800427c <xPortStartScheduler+0x38>
 800426a:	f04f 0350 	mov.w	r3, #80	; 0x50
 800426e:	f383 8811 	msr	BASEPRI, r3
 8004272:	f3bf 8f6f 	isb	sy
 8004276:	f3bf 8f4f 	dsb	sy
 800427a:	e7fe      	b.n	800427a <xPortStartScheduler+0x36>
 800427c:	4b2e      	ldr	r3, [pc, #184]	; (8004338 <xPortStartScheduler+0xf4>)
 800427e:	781a      	ldrb	r2, [r3, #0]
 8004280:	b2d2      	uxtb	r2, r2
 8004282:	9201      	str	r2, [sp, #4]
 8004284:	22ff      	movs	r2, #255	; 0xff
 8004286:	701a      	strb	r2, [r3, #0]
 8004288:	781b      	ldrb	r3, [r3, #0]
 800428a:	4a2c      	ldr	r2, [pc, #176]	; (800433c <xPortStartScheduler+0xf8>)
 800428c:	b2db      	uxtb	r3, r3
 800428e:	f88d 3003 	strb.w	r3, [sp, #3]
 8004292:	f89d 3003 	ldrb.w	r3, [sp, #3]
 8004296:	f003 0350 	and.w	r3, r3, #80	; 0x50
 800429a:	7013      	strb	r3, [r2, #0]
 800429c:	4b28      	ldr	r3, [pc, #160]	; (8004340 <xPortStartScheduler+0xfc>)
 800429e:	2207      	movs	r2, #7
 80042a0:	601a      	str	r2, [r3, #0]
 80042a2:	2100      	movs	r1, #0
 80042a4:	f89d 0003 	ldrb.w	r0, [sp, #3]
 80042a8:	0600      	lsls	r0, r0, #24
 80042aa:	f102 34ff 	add.w	r4, r2, #4294967295
 80042ae:	d40d      	bmi.n	80042cc <xPortStartScheduler+0x88>
 80042b0:	b101      	cbz	r1, 80042b4 <xPortStartScheduler+0x70>
 80042b2:	601a      	str	r2, [r3, #0]
 80042b4:	681a      	ldr	r2, [r3, #0]
 80042b6:	2a03      	cmp	r2, #3
 80042b8:	d011      	beq.n	80042de <xPortStartScheduler+0x9a>
 80042ba:	f04f 0350 	mov.w	r3, #80	; 0x50
 80042be:	f383 8811 	msr	BASEPRI, r3
 80042c2:	f3bf 8f6f 	isb	sy
 80042c6:	f3bf 8f4f 	dsb	sy
 80042ca:	e7fe      	b.n	80042ca <xPortStartScheduler+0x86>
 80042cc:	f89d 2003 	ldrb.w	r2, [sp, #3]
 80042d0:	0052      	lsls	r2, r2, #1
 80042d2:	b2d2      	uxtb	r2, r2
 80042d4:	f88d 2003 	strb.w	r2, [sp, #3]
 80042d8:	2101      	movs	r1, #1
 80042da:	4622      	mov	r2, r4
 80042dc:	e7e2      	b.n	80042a4 <xPortStartScheduler+0x60>
 80042de:	0212      	lsls	r2, r2, #8
 80042e0:	f402 62e0 	and.w	r2, r2, #1792	; 0x700
 80042e4:	601a      	str	r2, [r3, #0]
 80042e6:	9b01      	ldr	r3, [sp, #4]
 80042e8:	4a13      	ldr	r2, [pc, #76]	; (8004338 <xPortStartScheduler+0xf4>)
 80042ea:	b2db      	uxtb	r3, r3
 80042ec:	7013      	strb	r3, [r2, #0]
 80042ee:	4b15      	ldr	r3, [pc, #84]	; (8004344 <xPortStartScheduler+0x100>)
 80042f0:	681a      	ldr	r2, [r3, #0]
 80042f2:	f442 0270 	orr.w	r2, r2, #15728640	; 0xf00000
 80042f6:	601a      	str	r2, [r3, #0]
 80042f8:	681a      	ldr	r2, [r3, #0]
 80042fa:	f042 4270 	orr.w	r2, r2, #4026531840	; 0xf0000000
 80042fe:	601a      	str	r2, [r3, #0]
 8004300:	f7ff ff86 	bl	8004210 <vPortSetupTimerInterrupt>
 8004304:	4b10      	ldr	r3, [pc, #64]	; (8004348 <xPortStartScheduler+0x104>)
 8004306:	2400      	movs	r4, #0
 8004308:	601c      	str	r4, [r3, #0]
 800430a:	f7ff fecd 	bl	80040a8 <vPortEnableVFP>
 800430e:	4a0f      	ldr	r2, [pc, #60]	; (800434c <xPortStartScheduler+0x108>)
 8004310:	6813      	ldr	r3, [r2, #0]
 8004312:	f043 4340 	orr.w	r3, r3, #3221225472	; 0xc0000000
 8004316:	6013      	str	r3, [r2, #0]
 8004318:	f7ff feb2 	bl	8004080 <prvPortStartFirstTask>
 800431c:	f7ff fa48 	bl	80037b0 <vTaskSwitchContext>
 8004320:	f7ff fe8e 	bl	8004040 <prvTaskExitError>
 8004324:	4620      	mov	r0, r4
 8004326:	b002      	add	sp, #8
 8004328:	bd10      	pop	{r4, pc}
 800432a:	bf00      	nop
 800432c:	e000ed00 	.word	0xe000ed00
 8004330:	410fc271 	.word	0x410fc271
 8004334:	410fc270 	.word	0x410fc270
 8004338:	e000e400 	.word	0xe000e400
 800433c:	20000d20 	.word	0x20000d20
 8004340:	20000d24 	.word	0x20000d24
 8004344:	e000ed20 	.word	0xe000ed20
 8004348:	2000000c 	.word	0x2000000c
 800434c:	e000ef34 	.word	0xe000ef34

08004350 <vPortValidateInterruptPriority>:
 8004350:	f3ef 8305 	mrs	r3, IPSR
 8004354:	2b0f      	cmp	r3, #15
 8004356:	d90e      	bls.n	8004376 <vPortValidateInterruptPriority+0x26>
 8004358:	4a10      	ldr	r2, [pc, #64]	; (800439c <vPortValidateInterruptPriority+0x4c>)
 800435a:	5c9b      	ldrb	r3, [r3, r2]
 800435c:	4a10      	ldr	r2, [pc, #64]	; (80043a0 <vPortValidateInterruptPriority+0x50>)
 800435e:	7812      	ldrb	r2, [r2, #0]
 8004360:	429a      	cmp	r2, r3
 8004362:	d908      	bls.n	8004376 <vPortValidateInterruptPriority+0x26>
 8004364:	f04f 0350 	mov.w	r3, #80	; 0x50
 8004368:	f383 8811 	msr	BASEPRI, r3
 800436c:	f3bf 8f6f 	isb	sy
 8004370:	f3bf 8f4f 	dsb	sy
 8004374:	e7fe      	b.n	8004374 <vPortValidateInterruptPriority+0x24>
 8004376:	4b0b      	ldr	r3, [pc, #44]	; (80043a4 <vPortValidateInterruptPriority+0x54>)
 8004378:	4a0b      	ldr	r2, [pc, #44]	; (80043a8 <vPortValidateInterruptPriority+0x58>)
 800437a:	681b      	ldr	r3, [r3, #0]
 800437c:	6812      	ldr	r2, [r2, #0]
 800437e:	f403 63e0 	and.w	r3, r3, #1792	; 0x700
 8004382:	4293      	cmp	r3, r2
 8004384:	d908      	bls.n	8004398 <vPortValidateInterruptPriority+0x48>
 8004386:	f04f 0350 	mov.w	r3, #80	; 0x50
 800438a:	f383 8811 	msr	BASEPRI, r3
 800438e:	f3bf 8f6f 	isb	sy
 8004392:	f3bf 8f4f 	dsb	sy
 8004396:	e7fe      	b.n	8004396 <vPortValidateInterruptPriority+0x46>
 8004398:	4770      	bx	lr
 800439a:	bf00      	nop
 800439c:	e000e3f0 	.word	0xe000e3f0
 80043a0:	20000d20 	.word	0x20000d20
 80043a4:	e000ed0c 	.word	0xe000ed0c
 80043a8:	20000d24 	.word	0x20000d24

080043ac <prvInsertBlockIntoFreeList>:
 80043ac:	b510      	push	{r4, lr}
 80043ae:	4b0f      	ldr	r3, [pc, #60]	; (80043ec <prvInsertBlockIntoFreeList+0x40>)
 80043b0:	681a      	ldr	r2, [r3, #0]
 80043b2:	4282      	cmp	r2, r0
 80043b4:	d318      	bcc.n	80043e8 <prvInsertBlockIntoFreeList+0x3c>
 80043b6:	685c      	ldr	r4, [r3, #4]
 80043b8:	1919      	adds	r1, r3, r4
 80043ba:	4288      	cmp	r0, r1
 80043bc:	bf01      	itttt	eq
 80043be:	6841      	ldreq	r1, [r0, #4]
 80043c0:	4618      	moveq	r0, r3
 80043c2:	1909      	addeq	r1, r1, r4
 80043c4:	6059      	streq	r1, [r3, #4]
 80043c6:	6844      	ldr	r4, [r0, #4]
 80043c8:	1901      	adds	r1, r0, r4
 80043ca:	428a      	cmp	r2, r1
 80043cc:	d107      	bne.n	80043de <prvInsertBlockIntoFreeList+0x32>
 80043ce:	4908      	ldr	r1, [pc, #32]	; (80043f0 <prvInsertBlockIntoFreeList+0x44>)
 80043d0:	6809      	ldr	r1, [r1, #0]
 80043d2:	428a      	cmp	r2, r1
 80043d4:	bf1f      	itttt	ne
 80043d6:	6851      	ldrne	r1, [r2, #4]
 80043d8:	6812      	ldrne	r2, [r2, #0]
 80043da:	1909      	addne	r1, r1, r4
 80043dc:	6041      	strne	r1, [r0, #4]
 80043de:	4298      	cmp	r0, r3
 80043e0:	6002      	str	r2, [r0, #0]
 80043e2:	bf18      	it	ne
 80043e4:	6018      	strne	r0, [r3, #0]
 80043e6:	bd10      	pop	{r4, pc}
 80043e8:	4613      	mov	r3, r2
 80043ea:	e7e1      	b.n	80043b0 <prvInsertBlockIntoFreeList+0x4>
 80043ec:	20004938 	.word	0x20004938
 80043f0:	20000d28 	.word	0x20000d28

080043f4 <pvPortMalloc>:
 80043f4:	e92d 41f0 	stmdb	sp!, {r4, r5, r6, r7, r8, lr}
 80043f8:	4604      	mov	r4, r0
 80043fa:	f7ff f88b 	bl	8003514 <vTaskSuspendAll>
 80043fe:	493d      	ldr	r1, [pc, #244]	; (80044f4 <pvPortMalloc+0x100>)
 8004400:	4d3d      	ldr	r5, [pc, #244]	; (80044f8 <pvPortMalloc+0x104>)
 8004402:	680b      	ldr	r3, [r1, #0]
 8004404:	b9fb      	cbnz	r3, 8004446 <pvPortMalloc+0x52>
 8004406:	4a3d      	ldr	r2, [pc, #244]	; (80044fc <pvPortMalloc+0x108>)
 8004408:	0756      	lsls	r6, r2, #29
 800440a:	f502 5370 	add.w	r3, r2, #15360	; 0x3c00
 800440e:	bf1d      	ittte	ne
 8004410:	3207      	addne	r2, #7
 8004412:	f022 0207 	bicne.w	r2, r2, #7
 8004416:	1a9b      	subne	r3, r3, r2
 8004418:	f44f 5370 	moveq.w	r3, #15360	; 0x3c00
 800441c:	4413      	add	r3, r2
 800441e:	4e38      	ldr	r6, [pc, #224]	; (8004500 <pvPortMalloc+0x10c>)
 8004420:	3b08      	subs	r3, #8
 8004422:	f023 0307 	bic.w	r3, r3, #7
 8004426:	2000      	movs	r0, #0
 8004428:	6070      	str	r0, [r6, #4]
 800442a:	6032      	str	r2, [r6, #0]
 800442c:	e9c3 0000 	strd	r0, r0, [r3]
 8004430:	1a98      	subs	r0, r3, r2
 8004432:	600b      	str	r3, [r1, #0]
 8004434:	e9c2 3000 	strd	r3, r0, [r2]
 8004438:	4b32      	ldr	r3, [pc, #200]	; (8004504 <pvPortMalloc+0x110>)
 800443a:	6018      	str	r0, [r3, #0]
 800443c:	4b32      	ldr	r3, [pc, #200]	; (8004508 <pvPortMalloc+0x114>)
 800443e:	6018      	str	r0, [r3, #0]
 8004440:	f04f 4300 	mov.w	r3, #2147483648	; 0x80000000
 8004444:	602b      	str	r3, [r5, #0]
 8004446:	682f      	ldr	r7, [r5, #0]
 8004448:	4227      	tst	r7, r4
 800444a:	d14e      	bne.n	80044ea <pvPortMalloc+0xf6>
 800444c:	2c00      	cmp	r4, #0
 800444e:	d03f      	beq.n	80044d0 <pvPortMalloc+0xdc>
 8004450:	f104 0308 	add.w	r3, r4, #8
 8004454:	0758      	lsls	r0, r3, #29
 8004456:	bf1c      	itt	ne
 8004458:	f023 0307 	bicne.w	r3, r3, #7
 800445c:	3308      	addne	r3, #8
 800445e:	2b00      	cmp	r3, #0
 8004460:	d043      	beq.n	80044ea <pvPortMalloc+0xf6>
 8004462:	4a29      	ldr	r2, [pc, #164]	; (8004508 <pvPortMalloc+0x114>)
 8004464:	6816      	ldr	r6, [r2, #0]
 8004466:	429e      	cmp	r6, r3
 8004468:	4690      	mov	r8, r2
 800446a:	d33e      	bcc.n	80044ea <pvPortMalloc+0xf6>
 800446c:	4a24      	ldr	r2, [pc, #144]	; (8004500 <pvPortMalloc+0x10c>)
 800446e:	6815      	ldr	r5, [r2, #0]
 8004470:	6868      	ldr	r0, [r5, #4]
 8004472:	4298      	cmp	r0, r3
 8004474:	d201      	bcs.n	800447a <pvPortMalloc+0x86>
 8004476:	682c      	ldr	r4, [r5, #0]
 8004478:	b9a4      	cbnz	r4, 80044a4 <pvPortMalloc+0xb0>
 800447a:	6809      	ldr	r1, [r1, #0]
 800447c:	42a9      	cmp	r1, r5
 800447e:	d034      	beq.n	80044ea <pvPortMalloc+0xf6>
 8004480:	6829      	ldr	r1, [r5, #0]
 8004482:	6814      	ldr	r4, [r2, #0]
 8004484:	6011      	str	r1, [r2, #0]
 8004486:	1ac2      	subs	r2, r0, r3
 8004488:	2a10      	cmp	r2, #16
 800448a:	d912      	bls.n	80044b2 <pvPortMalloc+0xbe>
 800448c:	18e8      	adds	r0, r5, r3
 800448e:	0741      	lsls	r1, r0, #29
 8004490:	d00b      	beq.n	80044aa <pvPortMalloc+0xb6>
 8004492:	f04f 0350 	mov.w	r3, #80	; 0x50
 8004496:	f383 8811 	msr	BASEPRI, r3
 800449a:	f3bf 8f6f 	isb	sy
 800449e:	f3bf 8f4f 	dsb	sy
 80044a2:	e7fe      	b.n	80044a2 <pvPortMalloc+0xae>
 80044a4:	462a      	mov	r2, r5
 80044a6:	4625      	mov	r5, r4
 80044a8:	e7e2      	b.n	8004470 <pvPortMalloc+0x7c>
 80044aa:	6042      	str	r2, [r0, #4]
 80044ac:	606b      	str	r3, [r5, #4]
 80044ae:	f7ff ff7d 	bl	80043ac <prvInsertBlockIntoFreeList>
 80044b2:	4914      	ldr	r1, [pc, #80]	; (8004504 <pvPortMalloc+0x110>)
 80044b4:	686b      	ldr	r3, [r5, #4]
 80044b6:	6808      	ldr	r0, [r1, #0]
 80044b8:	1af6      	subs	r6, r6, r3
 80044ba:	431f      	orrs	r7, r3
 80044bc:	4286      	cmp	r6, r0
 80044be:	f04f 0300 	mov.w	r3, #0
 80044c2:	f8c8 6000 	str.w	r6, [r8]
 80044c6:	bf38      	it	cc
 80044c8:	600e      	strcc	r6, [r1, #0]
 80044ca:	3408      	adds	r4, #8
 80044cc:	606f      	str	r7, [r5, #4]
 80044ce:	602b      	str	r3, [r5, #0]
 80044d0:	f7ff f8ca 	bl	8003668 <xTaskResumeAll>
 80044d4:	0763      	lsls	r3, r4, #29
 80044d6:	d00a      	beq.n	80044ee <pvPortMalloc+0xfa>
 80044d8:	f04f 0350 	mov.w	r3, #80	; 0x50
 80044dc:	f383 8811 	msr	BASEPRI, r3
 80044e0:	f3bf 8f6f 	isb	sy
 80044e4:	f3bf 8f4f 	dsb	sy
 80044e8:	e7fe      	b.n	80044e8 <pvPortMalloc+0xf4>
 80044ea:	2400      	movs	r4, #0
 80044ec:	e7f0      	b.n	80044d0 <pvPortMalloc+0xdc>
 80044ee:	4620      	mov	r0, r4
 80044f0:	e8bd 81f0 	ldmia.w	sp!, {r4, r5, r6, r7, r8, pc}
 80044f4:	20000d28 	.word	0x20000d28
 80044f8:	2000492c 	.word	0x2000492c
 80044fc:	20000d2c 	.word	0x20000d2c
 8004500:	20004938 	.word	0x20004938
 8004504:	20004934 	.word	0x20004934
 8004508:	20004930 	.word	0x20004930

0800450c <vPortFree>:
 800450c:	b510      	push	{r4, lr}
 800450e:	4604      	mov	r4, r0
 8004510:	b370      	cbz	r0, 8004570 <vPortFree+0x64>
 8004512:	4a18      	ldr	r2, [pc, #96]	; (8004574 <vPortFree+0x68>)
 8004514:	f850 3c04 	ldr.w	r3, [r0, #-4]
 8004518:	6812      	ldr	r2, [r2, #0]
 800451a:	4213      	tst	r3, r2
 800451c:	d108      	bne.n	8004530 <vPortFree+0x24>
 800451e:	f04f 0350 	mov.w	r3, #80	; 0x50
 8004522:	f383 8811 	msr	BASEPRI, r3
 8004526:	f3bf 8f6f 	isb	sy
 800452a:	f3bf 8f4f 	dsb	sy
 800452e:	e7fe      	b.n	800452e <vPortFree+0x22>
 8004530:	f850 1c08 	ldr.w	r1, [r0, #-8]
 8004534:	b141      	cbz	r1, 8004548 <vPortFree+0x3c>
 8004536:	f04f 0350 	mov.w	r3, #80	; 0x50
 800453a:	f383 8811 	msr	BASEPRI, r3
 800453e:	f3bf 8f6f 	isb	sy
 8004542:	f3bf 8f4f 	dsb	sy
 8004546:	e7fe      	b.n	8004546 <vPortFree+0x3a>
 8004548:	ea23 0302 	bic.w	r3, r3, r2
 800454c:	f840 3c04 	str.w	r3, [r0, #-4]
 8004550:	f7fe ffe0 	bl	8003514 <vTaskSuspendAll>
 8004554:	4a08      	ldr	r2, [pc, #32]	; (8004578 <vPortFree+0x6c>)
 8004556:	f854 3c04 	ldr.w	r3, [r4, #-4]
 800455a:	6811      	ldr	r1, [r2, #0]
 800455c:	f1a4 0008 	sub.w	r0, r4, #8
 8004560:	440b      	add	r3, r1
 8004562:	6013      	str	r3, [r2, #0]
 8004564:	f7ff ff22 	bl	80043ac <prvInsertBlockIntoFreeList>
 8004568:	e8bd 4010 	ldmia.w	sp!, {r4, lr}
 800456c:	f7ff b87c 	b.w	8003668 <xTaskResumeAll>
 8004570:	bd10      	pop	{r4, pc}
 8004572:	bf00      	nop
 8004574:	2000492c 	.word	0x2000492c
 8004578:	20004930 	.word	0x20004930

0800457c <_DoInit>:
 800457c:	b510      	push	{r4, lr}
 800457e:	4c14      	ldr	r4, [pc, #80]	; (80045d0 <_DoInit+0x54>)
 8004580:	4a14      	ldr	r2, [pc, #80]	; (80045d4 <_DoInit+0x58>)
 8004582:	4915      	ldr	r1, [pc, #84]	; (80045d8 <_DoInit+0x5c>)
 8004584:	2303      	movs	r3, #3
 8004586:	6123      	str	r3, [r4, #16]
 8004588:	6163      	str	r3, [r4, #20]
 800458a:	4b14      	ldr	r3, [pc, #80]	; (80045dc <_DoInit+0x60>)
 800458c:	61a2      	str	r2, [r4, #24]
 800458e:	61e3      	str	r3, [r4, #28]
 8004590:	f44f 6380 	mov.w	r3, #1024	; 0x400
 8004594:	6223      	str	r3, [r4, #32]
 8004596:	2300      	movs	r3, #0
 8004598:	62a3      	str	r3, [r4, #40]	; 0x28
 800459a:	6263      	str	r3, [r4, #36]	; 0x24
 800459c:	62e3      	str	r3, [r4, #44]	; 0x2c
 800459e:	6622      	str	r2, [r4, #96]	; 0x60
 80045a0:	4a0f      	ldr	r2, [pc, #60]	; (80045e0 <_DoInit+0x64>)
 80045a2:	6662      	str	r2, [r4, #100]	; 0x64
 80045a4:	1de0      	adds	r0, r4, #7
 80045a6:	2210      	movs	r2, #16
 80045a8:	66a2      	str	r2, [r4, #104]	; 0x68
 80045aa:	6723      	str	r3, [r4, #112]	; 0x70
 80045ac:	66e3      	str	r3, [r4, #108]	; 0x6c
 80045ae:	6763      	str	r3, [r4, #116]	; 0x74
 80045b0:	f000 fe88 	bl	80052c4 <strcpy>
 80045b4:	f3bf 8f5f 	dmb	sy
 80045b8:	490a      	ldr	r1, [pc, #40]	; (80045e4 <_DoInit+0x68>)
 80045ba:	4620      	mov	r0, r4
 80045bc:	f000 fe82 	bl	80052c4 <strcpy>
 80045c0:	f3bf 8f5f 	dmb	sy
 80045c4:	2320      	movs	r3, #32
 80045c6:	71a3      	strb	r3, [r4, #6]
 80045c8:	f3bf 8f5f 	dmb	sy
 80045cc:	bd10      	pop	{r4, pc}
 80045ce:	bf00      	nop
 80045d0:	20005528 	.word	0x20005528
 80045d4:	080053c6 	.word	0x080053c6
 80045d8:	080053cf 	.word	0x080053cf
 80045dc:	20004950 	.word	0x20004950
 80045e0:	20004940 	.word	0x20004940
 80045e4:	080053d3 	.word	0x080053d3

080045e8 <SEGGER_RTT_ReadNoLock>:
 80045e8:	e92d 4ff8 	stmdb	sp!, {r3, r4, r5, r6, r7, r8, r9, sl, fp, lr}
 80045ec:	4b1f      	ldr	r3, [pc, #124]	; (800466c <SEGGER_RTT_ReadNoLock+0x84>)
 80045ee:	4616      	mov	r6, r2
 80045f0:	781a      	ldrb	r2, [r3, #0]
 80045f2:	4681      	mov	r9, r0
 80045f4:	468a      	mov	sl, r1
 80045f6:	4698      	mov	r8, r3
 80045f8:	b90a      	cbnz	r2, 80045fe <SEGGER_RTT_ReadNoLock+0x16>
 80045fa:	f7ff ffbf 	bl	800457c <_DoInit>
 80045fe:	2718      	movs	r7, #24
 8004600:	fb07 8709 	mla	r7, r7, r9, r8
 8004604:	6f3d      	ldr	r5, [r7, #112]	; 0x70
 8004606:	f8d7 b06c 	ldr.w	fp, [r7, #108]	; 0x6c
 800460a:	455d      	cmp	r5, fp
 800460c:	d92b      	bls.n	8004666 <SEGGER_RTT_ReadNoLock+0x7e>
 800460e:	6ebc      	ldr	r4, [r7, #104]	; 0x68
 8004610:	6e79      	ldr	r1, [r7, #100]	; 0x64
 8004612:	1b64      	subs	r4, r4, r5
 8004614:	42b4      	cmp	r4, r6
 8004616:	bf28      	it	cs
 8004618:	4634      	movcs	r4, r6
 800461a:	4429      	add	r1, r5
 800461c:	4650      	mov	r0, sl
 800461e:	4622      	mov	r2, r4
 8004620:	f000 fe3d 	bl	800529e <memcpy>
 8004624:	6ebb      	ldr	r3, [r7, #104]	; 0x68
 8004626:	4425      	add	r5, r4
 8004628:	44a2      	add	sl, r4
 800462a:	1b36      	subs	r6, r6, r4
 800462c:	42ab      	cmp	r3, r5
 800462e:	bf08      	it	eq
 8004630:	2500      	moveq	r5, #0
 8004632:	ebab 0b05 	sub.w	fp, fp, r5
 8004636:	455e      	cmp	r6, fp
 8004638:	bf28      	it	cs
 800463a:	465e      	movcs	r6, fp
 800463c:	b156      	cbz	r6, 8004654 <SEGGER_RTT_ReadNoLock+0x6c>
 800463e:	2318      	movs	r3, #24
 8004640:	fb03 8309 	mla	r3, r3, r9, r8
 8004644:	4632      	mov	r2, r6
 8004646:	6e59      	ldr	r1, [r3, #100]	; 0x64
 8004648:	4650      	mov	r0, sl
 800464a:	4429      	add	r1, r5
 800464c:	f000 fe27 	bl	800529e <memcpy>
 8004650:	4434      	add	r4, r6
 8004652:	4435      	add	r5, r6
 8004654:	b124      	cbz	r4, 8004660 <SEGGER_RTT_ReadNoLock+0x78>
 8004656:	2318      	movs	r3, #24
 8004658:	fb03 8809 	mla	r8, r3, r9, r8
 800465c:	f8c8 5070 	str.w	r5, [r8, #112]	; 0x70
 8004660:	4620      	mov	r0, r4
 8004662:	e8bd 8ff8 	ldmia.w	sp!, {r3, r4, r5, r6, r7, r8, r9, sl, fp, pc}
 8004666:	2400      	movs	r4, #0
 8004668:	e7e3      	b.n	8004632 <SEGGER_RTT_ReadNoLock+0x4a>
 800466a:	bf00      	nop
 800466c:	20005528 	.word	0x20005528

08004670 <SEGGER_RTT_AllocUpBuffer>:
 8004670:	e92d 47f0 	stmdb	sp!, {r4, r5, r6, r7, r8, r9, sl, lr}
 8004674:	4c1b      	ldr	r4, [pc, #108]	; (80046e4 <SEGGER_RTT_AllocUpBuffer+0x74>)
 8004676:	461f      	mov	r7, r3
 8004678:	7823      	ldrb	r3, [r4, #0]
 800467a:	4682      	mov	sl, r0
 800467c:	4689      	mov	r9, r1
 800467e:	4690      	mov	r8, r2
 8004680:	b90b      	cbnz	r3, 8004686 <SEGGER_RTT_AllocUpBuffer+0x16>
 8004682:	f7ff ff7b 	bl	800457c <_DoInit>
 8004686:	f3ef 8311 	mrs	r3, BASEPRI
 800468a:	f04f 0120 	mov.w	r1, #32
 800468e:	f381 8811 	msr	BASEPRI, r1
 8004692:	2100      	movs	r1, #0
 8004694:	2018      	movs	r0, #24
 8004696:	1c4d      	adds	r5, r1, #1
 8004698:	fb00 4205 	mla	r2, r0, r5, r4
 800469c:	6852      	ldr	r2, [r2, #4]
 800469e:	b11a      	cbz	r2, 80046a8 <SEGGER_RTT_AllocUpBuffer+0x38>
 80046a0:	6922      	ldr	r2, [r4, #16]
 80046a2:	42aa      	cmp	r2, r5
 80046a4:	4629      	mov	r1, r5
 80046a6:	dcf6      	bgt.n	8004696 <SEGGER_RTT_AllocUpBuffer+0x26>
 80046a8:	6922      	ldr	r2, [r4, #16]
 80046aa:	428a      	cmp	r2, r1
 80046ac:	dd16      	ble.n	80046dc <SEGGER_RTT_AllocUpBuffer+0x6c>
 80046ae:	2518      	movs	r5, #24
 80046b0:	fb01 5605 	mla	r6, r1, r5, r5
 80046b4:	19a2      	adds	r2, r4, r6
 80046b6:	f844 a006 	str.w	sl, [r4, r6]
 80046ba:	fb05 4401 	mla	r4, r5, r1, r4
 80046be:	f8c2 9004 	str.w	r9, [r2, #4]
 80046c2:	2200      	movs	r2, #0
 80046c4:	f8c4 8020 	str.w	r8, [r4, #32]
 80046c8:	62a2      	str	r2, [r4, #40]	; 0x28
 80046ca:	6262      	str	r2, [r4, #36]	; 0x24
 80046cc:	62e7      	str	r7, [r4, #44]	; 0x2c
 80046ce:	f3bf 8f5f 	dmb	sy
 80046d2:	f383 8811 	msr	BASEPRI, r3
 80046d6:	4608      	mov	r0, r1
 80046d8:	e8bd 87f0 	ldmia.w	sp!, {r4, r5, r6, r7, r8, r9, sl, pc}
 80046dc:	f04f 31ff 	mov.w	r1, #4294967295
 80046e0:	e7f7      	b.n	80046d2 <SEGGER_RTT_AllocUpBuffer+0x62>
 80046e2:	bf00      	nop
 80046e4:	20005528 	.word	0x20005528

080046e8 <SEGGER_RTT_ConfigDownBuffer>:
 80046e8:	e92d 43f8 	stmdb	sp!, {r3, r4, r5, r6, r7, r8, r9, lr}
 80046ec:	4d16      	ldr	r5, [pc, #88]	; (8004748 <SEGGER_RTT_ConfigDownBuffer+0x60>)
 80046ee:	461f      	mov	r7, r3
 80046f0:	782b      	ldrb	r3, [r5, #0]
 80046f2:	4604      	mov	r4, r0
 80046f4:	4689      	mov	r9, r1
 80046f6:	4690      	mov	r8, r2
 80046f8:	b90b      	cbnz	r3, 80046fe <SEGGER_RTT_ConfigDownBuffer+0x16>
 80046fa:	f7ff ff3f 	bl	800457c <_DoInit>
 80046fe:	696b      	ldr	r3, [r5, #20]
 8004700:	42a3      	cmp	r3, r4
 8004702:	d91d      	bls.n	8004740 <SEGGER_RTT_ConfigDownBuffer+0x58>
 8004704:	f3ef 8611 	mrs	r6, BASEPRI
 8004708:	f04f 0120 	mov.w	r1, #32
 800470c:	f381 8811 	msr	BASEPRI, r1
 8004710:	b154      	cbz	r4, 8004728 <SEGGER_RTT_ConfigDownBuffer+0x40>
 8004712:	2118      	movs	r1, #24
 8004714:	fb01 5104 	mla	r1, r1, r4, r5
 8004718:	2300      	movs	r3, #0
 800471a:	f8c1 9060 	str.w	r9, [r1, #96]	; 0x60
 800471e:	f8c1 8064 	str.w	r8, [r1, #100]	; 0x64
 8004722:	668f      	str	r7, [r1, #104]	; 0x68
 8004724:	670b      	str	r3, [r1, #112]	; 0x70
 8004726:	66cb      	str	r3, [r1, #108]	; 0x6c
 8004728:	2018      	movs	r0, #24
 800472a:	fb00 5404 	mla	r4, r0, r4, r5
 800472e:	9b08      	ldr	r3, [sp, #32]
 8004730:	6763      	str	r3, [r4, #116]	; 0x74
 8004732:	f3bf 8f5f 	dmb	sy
 8004736:	f386 8811 	msr	BASEPRI, r6
 800473a:	2000      	movs	r0, #0
 800473c:	e8bd 83f8 	ldmia.w	sp!, {r3, r4, r5, r6, r7, r8, r9, pc}
 8004740:	f04f 30ff 	mov.w	r0, #4294967295
 8004744:	e7fa      	b.n	800473c <SEGGER_RTT_ConfigDownBuffer+0x54>
 8004746:	bf00      	nop
 8004748:	20005528 	.word	0x20005528

0800474c <_EncodeStr>:
 800474c:	b530      	push	{r4, r5, lr}
 800474e:	460c      	mov	r4, r1
 8004750:	1a63      	subs	r3, r4, r1
 8004752:	f814 5b01 	ldrb.w	r5, [r4], #1
 8004756:	2d00      	cmp	r5, #0
 8004758:	d1fa      	bne.n	8004750 <_EncodeStr+0x4>
 800475a:	429a      	cmp	r2, r3
 800475c:	bf28      	it	cs
 800475e:	461a      	movcs	r2, r3
 8004760:	2afe      	cmp	r2, #254	; 0xfe
 8004762:	b2d4      	uxtb	r4, r2
 8004764:	bf81      	itttt	hi
 8004766:	23ff      	movhi	r3, #255	; 0xff
 8004768:	7044      	strbhi	r4, [r0, #1]
 800476a:	7003      	strbhi	r3, [r0, #0]
 800476c:	0a14      	lsrhi	r4, r2, #8
 800476e:	bf95      	itete	ls
 8004770:	1c43      	addls	r3, r0, #1
 8004772:	1cc3      	addhi	r3, r0, #3
 8004774:	7004      	strbls	r4, [r0, #0]
 8004776:	7084      	strbhi	r4, [r0, #2]
 8004778:	1e58      	subs	r0, r3, #1
 800477a:	188c      	adds	r4, r1, r2
 800477c:	42a1      	cmp	r1, r4
 800477e:	d101      	bne.n	8004784 <_EncodeStr+0x38>
 8004780:	1898      	adds	r0, r3, r2
 8004782:	bd30      	pop	{r4, r5, pc}
 8004784:	f811 5b01 	ldrb.w	r5, [r1], #1
 8004788:	f800 5f01 	strb.w	r5, [r0, #1]!
 800478c:	e7f6      	b.n	800477c <_EncodeStr+0x30>
	...

08004790 <SEGGER_SYSVIEW_Init>:
 8004790:	e92d 47f3 	stmdb	sp!, {r0, r1, r4, r5, r6, r7, r8, r9, sl, lr}
 8004794:	4e11      	ldr	r6, [pc, #68]	; (80047dc <SEGGER_SYSVIEW_Init+0x4c>)
 8004796:	4c12      	ldr	r4, [pc, #72]	; (80047e0 <SEGGER_SYSVIEW_Init+0x50>)
 8004798:	4681      	mov	r9, r0
 800479a:	4688      	mov	r8, r1
 800479c:	4692      	mov	sl, r2
 800479e:	461f      	mov	r7, r3
 80047a0:	f44f 6280 	mov.w	r2, #1024	; 0x400
 80047a4:	2300      	movs	r3, #0
 80047a6:	490f      	ldr	r1, [pc, #60]	; (80047e4 <SEGGER_SYSVIEW_Init+0x54>)
 80047a8:	4630      	mov	r0, r6
 80047aa:	f7ff ff61 	bl	8004670 <SEGGER_RTT_AllocUpBuffer>
 80047ae:	2500      	movs	r5, #0
 80047b0:	b2c0      	uxtb	r0, r0
 80047b2:	9500      	str	r5, [sp, #0]
 80047b4:	2308      	movs	r3, #8
 80047b6:	4a0c      	ldr	r2, [pc, #48]	; (80047e8 <SEGGER_SYSVIEW_Init+0x58>)
 80047b8:	7060      	strb	r0, [r4, #1]
 80047ba:	4631      	mov	r1, r6
 80047bc:	7620      	strb	r0, [r4, #24]
 80047be:	f7ff ff93 	bl	80046e8 <SEGGER_RTT_ConfigDownBuffer>
 80047c2:	4b0a      	ldr	r3, [pc, #40]	; (80047ec <SEGGER_SYSVIEW_Init+0x5c>)
 80047c4:	6125      	str	r5, [r4, #16]
 80047c6:	681b      	ldr	r3, [r3, #0]
 80047c8:	60e3      	str	r3, [r4, #12]
 80047ca:	f8c4 a020 	str.w	sl, [r4, #32]
 80047ce:	e9c4 9801 	strd	r9, r8, [r4, #4]
 80047d2:	6267      	str	r7, [r4, #36]	; 0x24
 80047d4:	7025      	strb	r5, [r4, #0]
 80047d6:	b002      	add	sp, #8
 80047d8:	e8bd 87f0 	ldmia.w	sp!, {r4, r5, r6, r7, r8, r9, sl, pc}
 80047dc:	080053da 	.word	0x080053da
 80047e0:	20004d5c 	.word	0x20004d5c
 80047e4:	20004d84 	.word	0x20004d84
 80047e8:	20004d50 	.word	0x20004d50
 80047ec:	e0001004 	.word	0xe0001004

080047f0 <SEGGER_SYSVIEW_SetRAMBase>:
 80047f0:	4b01      	ldr	r3, [pc, #4]	; (80047f8 <SEGGER_SYSVIEW_SetRAMBase+0x8>)
 80047f2:	6118      	str	r0, [r3, #16]
 80047f4:	4770      	bx	lr
 80047f6:	bf00      	nop
 80047f8:	20004d5c 	.word	0x20004d5c

080047fc <SEGGER_SYSVIEW_SendTaskList>:
 80047fc:	4b03      	ldr	r3, [pc, #12]	; (800480c <SEGGER_SYSVIEW_SendTaskList+0x10>)
 80047fe:	6a1b      	ldr	r3, [r3, #32]
 8004800:	b113      	cbz	r3, 8004808 <SEGGER_SYSVIEW_SendTaskList+0xc>
 8004802:	685b      	ldr	r3, [r3, #4]
 8004804:	b103      	cbz	r3, 8004808 <SEGGER_SYSVIEW_SendTaskList+0xc>
 8004806:	4718      	bx	r3
 8004808:	4770      	bx	lr
 800480a:	bf00      	nop
 800480c:	20004d5c 	.word	0x20004d5c

08004810 <SEGGER_SYSVIEW_ShrinkId>:
 8004810:	4b01      	ldr	r3, [pc, #4]	; (8004818 <SEGGER_SYSVIEW_ShrinkId+0x8>)
 8004812:	691b      	ldr	r3, [r3, #16]
 8004814:	1ac0      	subs	r0, r0, r3
 8004816:	4770      	bx	lr
 8004818:	20004d5c 	.word	0x20004d5c

0800481c <SEGGER_SYSVIEW_SendModuleDescription>:
 800481c:	4b04      	ldr	r3, [pc, #16]	; (8004830 <SEGGER_SYSVIEW_SendModuleDescription+0x14>)
 800481e:	b510      	push	{r4, lr}
 8004820:	681c      	ldr	r4, [r3, #0]
 8004822:	b124      	cbz	r4, 800482e <SEGGER_SYSVIEW_SendModuleDescription+0x12>
 8004824:	68e3      	ldr	r3, [r4, #12]
 8004826:	b103      	cbz	r3, 800482a <SEGGER_SYSVIEW_SendModuleDescription+0xe>
 8004828:	4798      	blx	r3
 800482a:	6924      	ldr	r4, [r4, #16]
 800482c:	e7f9      	b.n	8004822 <SEGGER_SYSVIEW_SendModuleDescription+0x6>
 800482e:	bd10      	pop	{r4, pc}
 8004830:	20005268 	.word	0x20005268

08004834 <SEGGER_SYSVIEW_SendNumModules>:
 8004834:	b510      	push	{r4, lr}
 8004836:	f3ef 8411 	mrs	r4, BASEPRI
 800483a:	f04f 0120 	mov.w	r1, #32
 800483e:	f381 8811 	msr	BASEPRI, r1
 8004842:	4b09      	ldr	r3, [pc, #36]	; (8004868 <SEGGER_SYSVIEW_SendNumModules+0x34>)
 8004844:	4809      	ldr	r0, [pc, #36]	; (800486c <SEGGER_SYSVIEW_SendNumModules+0x38>)
 8004846:	781b      	ldrb	r3, [r3, #0]
 8004848:	2b7f      	cmp	r3, #127	; 0x7f
 800484a:	bf89      	itett	hi
 800484c:	4908      	ldrhi	r1, [pc, #32]	; (8004870 <SEGGER_SYSVIEW_SendNumModules+0x3c>)
 800484e:	4907      	ldrls	r1, [pc, #28]	; (800486c <SEGGER_SYSVIEW_SendNumModules+0x38>)
 8004850:	710b      	strbhi	r3, [r1, #4]
 8004852:	3105      	addhi	r1, #5
 8004854:	bf88      	it	hi
 8004856:	2301      	movhi	r3, #1
 8004858:	f801 3b01 	strb.w	r3, [r1], #1
 800485c:	221b      	movs	r2, #27
 800485e:	f000 f8b3 	bl	80049c8 <_SendPacket>
 8004862:	f384 8811 	msr	BASEPRI, r4
 8004866:	bd10      	pop	{r4, pc}
 8004868:	20004d58 	.word	0x20004d58
 800486c:	20005188 	.word	0x20005188
 8004870:	20005184 	.word	0x20005184

08004874 <SEGGER_SYSVIEW_Start>:
 8004874:	b538      	push	{r3, r4, r5, lr}
 8004876:	4c2a      	ldr	r4, [pc, #168]	; (8004920 <SEGGER_SYSVIEW_Start+0xac>)
 8004878:	2301      	movs	r3, #1
 800487a:	7023      	strb	r3, [r4, #0]
 800487c:	f3ef 8511 	mrs	r5, BASEPRI
 8004880:	f04f 0120 	mov.w	r1, #32
 8004884:	f381 8811 	msr	BASEPRI, r1
 8004888:	220a      	movs	r2, #10
 800488a:	4926      	ldr	r1, [pc, #152]	; (8004924 <SEGGER_SYSVIEW_Start+0xb0>)
 800488c:	7860      	ldrb	r0, [r4, #1]
 800488e:	f7fb fc9f 	bl	80001d0 <SEGGER_RTT_ASM_WriteSkipNoLock>
 8004892:	f385 8811 	msr	BASEPRI, r5
 8004896:	200a      	movs	r0, #10
 8004898:	f000 f93e 	bl	8004b18 <SEGGER_SYSVIEW_RecordVoid>
 800489c:	f3ef 8511 	mrs	r5, BASEPRI
 80048a0:	f04f 0120 	mov.w	r1, #32
 80048a4:	f381 8811 	msr	BASEPRI, r1
 80048a8:	481f      	ldr	r0, [pc, #124]	; (8004928 <SEGGER_SYSVIEW_Start+0xb4>)
 80048aa:	6861      	ldr	r1, [r4, #4]
 80048ac:	297f      	cmp	r1, #127	; 0x7f
 80048ae:	b2ca      	uxtb	r2, r1
 80048b0:	f100 0301 	add.w	r3, r0, #1
 80048b4:	d820      	bhi.n	80048f8 <SEGGER_SYSVIEW_Start+0x84>
 80048b6:	7002      	strb	r2, [r0, #0]
 80048b8:	68a0      	ldr	r0, [r4, #8]
 80048ba:	287f      	cmp	r0, #127	; 0x7f
 80048bc:	b2c2      	uxtb	r2, r0
 80048be:	f103 0101 	add.w	r1, r3, #1
 80048c2:	d820      	bhi.n	8004906 <SEGGER_SYSVIEW_Start+0x92>
 80048c4:	701a      	strb	r2, [r3, #0]
 80048c6:	6922      	ldr	r2, [r4, #16]
 80048c8:	2a7f      	cmp	r2, #127	; 0x7f
 80048ca:	b2d3      	uxtb	r3, r2
 80048cc:	d822      	bhi.n	8004914 <SEGGER_SYSVIEW_Start+0xa0>
 80048ce:	700b      	strb	r3, [r1, #0]
 80048d0:	2300      	movs	r3, #0
 80048d2:	704b      	strb	r3, [r1, #1]
 80048d4:	2218      	movs	r2, #24
 80048d6:	3102      	adds	r1, #2
 80048d8:	4813      	ldr	r0, [pc, #76]	; (8004928 <SEGGER_SYSVIEW_Start+0xb4>)
 80048da:	f000 f875 	bl	80049c8 <_SendPacket>
 80048de:	f385 8811 	msr	BASEPRI, r5
 80048e2:	6a63      	ldr	r3, [r4, #36]	; 0x24
 80048e4:	b103      	cbz	r3, 80048e8 <SEGGER_SYSVIEW_Start+0x74>
 80048e6:	4798      	blx	r3
 80048e8:	f000 f974 	bl	8004bd4 <SEGGER_SYSVIEW_RecordSystime>
 80048ec:	f7ff ff86 	bl	80047fc <SEGGER_SYSVIEW_SendTaskList>
 80048f0:	e8bd 4038 	ldmia.w	sp!, {r3, r4, r5, lr}
 80048f4:	f7ff bf9e 	b.w	8004834 <SEGGER_SYSVIEW_SendNumModules>
 80048f8:	f062 027f 	orn	r2, r2, #127	; 0x7f
 80048fc:	f803 2c01 	strb.w	r2, [r3, #-1]
 8004900:	09c9      	lsrs	r1, r1, #7
 8004902:	4618      	mov	r0, r3
 8004904:	e7d2      	b.n	80048ac <SEGGER_SYSVIEW_Start+0x38>
 8004906:	f062 027f 	orn	r2, r2, #127	; 0x7f
 800490a:	f801 2c01 	strb.w	r2, [r1, #-1]
 800490e:	09c0      	lsrs	r0, r0, #7
 8004910:	460b      	mov	r3, r1
 8004912:	e7d2      	b.n	80048ba <SEGGER_SYSVIEW_Start+0x46>
 8004914:	f063 037f 	orn	r3, r3, #127	; 0x7f
 8004918:	f801 3b01 	strb.w	r3, [r1], #1
 800491c:	09d2      	lsrs	r2, r2, #7
 800491e:	e7d3      	b.n	80048c8 <SEGGER_SYSVIEW_Start+0x54>
 8004920:	20004d5c 	.word	0x20004d5c
 8004924:	080053e2 	.word	0x080053e2
 8004928:	20005188 	.word	0x20005188

0800492c <_HandleIncomingPacket>:
 800492c:	b513      	push	{r0, r1, r4, lr}
 800492e:	4c25      	ldr	r4, [pc, #148]	; (80049c4 <_HandleIncomingPacket+0x98>)
 8004930:	2201      	movs	r2, #1
 8004932:	f10d 0107 	add.w	r1, sp, #7
 8004936:	7e20      	ldrb	r0, [r4, #24]
 8004938:	f7ff fe56 	bl	80045e8 <SEGGER_RTT_ReadNoLock>
 800493c:	2800      	cmp	r0, #0
 800493e:	4620      	mov	r0, r4
 8004940:	dd2f      	ble.n	80049a2 <_HandleIncomingPacket+0x76>
 8004942:	f89d 3007 	ldrb.w	r3, [sp, #7]
 8004946:	2b05      	cmp	r3, #5
 8004948:	d033      	beq.n	80049b2 <_HandleIncomingPacket+0x86>
 800494a:	d814      	bhi.n	8004976 <_HandleIncomingPacket+0x4a>
 800494c:	2b02      	cmp	r3, #2
 800494e:	d02a      	beq.n	80049a6 <_HandleIncomingPacket+0x7a>
 8004950:	d80a      	bhi.n	8004968 <_HandleIncomingPacket+0x3c>
 8004952:	2b01      	cmp	r3, #1
 8004954:	d023      	beq.n	800499e <_HandleIncomingPacket+0x72>
 8004956:	061b      	lsls	r3, r3, #24
 8004958:	d523      	bpl.n	80049a2 <_HandleIncomingPacket+0x76>
 800495a:	2201      	movs	r2, #1
 800495c:	f10d 0107 	add.w	r1, sp, #7
 8004960:	7e00      	ldrb	r0, [r0, #24]
 8004962:	f7ff fe41 	bl	80045e8 <SEGGER_RTT_ReadNoLock>
 8004966:	e01c      	b.n	80049a2 <_HandleIncomingPacket+0x76>
 8004968:	2b03      	cmp	r3, #3
 800496a:	d01f      	beq.n	80049ac <_HandleIncomingPacket+0x80>
 800496c:	2b04      	cmp	r3, #4
 800496e:	d1f2      	bne.n	8004956 <_HandleIncomingPacket+0x2a>
 8004970:	f7ff ff44 	bl	80047fc <SEGGER_SYSVIEW_SendTaskList>
 8004974:	e015      	b.n	80049a2 <_HandleIncomingPacket+0x76>
 8004976:	2b07      	cmp	r3, #7
 8004978:	d021      	beq.n	80049be <_HandleIncomingPacket+0x92>
 800497a:	d31d      	bcc.n	80049b8 <_HandleIncomingPacket+0x8c>
 800497c:	2b7f      	cmp	r3, #127	; 0x7f
 800497e:	d010      	beq.n	80049a2 <_HandleIncomingPacket+0x76>
 8004980:	2b80      	cmp	r3, #128	; 0x80
 8004982:	d1e8      	bne.n	8004956 <_HandleIncomingPacket+0x2a>
 8004984:	2201      	movs	r2, #1
 8004986:	f10d 0107 	add.w	r1, sp, #7
 800498a:	7e20      	ldrb	r0, [r4, #24]
 800498c:	f7ff fe2c 	bl	80045e8 <SEGGER_RTT_ReadNoLock>
 8004990:	2800      	cmp	r0, #0
 8004992:	dd06      	ble.n	80049a2 <_HandleIncomingPacket+0x76>
 8004994:	f89d 0007 	ldrb.w	r0, [sp, #7]
 8004998:	f000 fb4c 	bl	8005034 <SEGGER_SYSVIEW_SendModule>
 800499c:	e001      	b.n	80049a2 <_HandleIncomingPacket+0x76>
 800499e:	f7ff ff69 	bl	8004874 <SEGGER_SYSVIEW_Start>
 80049a2:	b002      	add	sp, #8
 80049a4:	bd10      	pop	{r4, pc}
 80049a6:	f000 f9b3 	bl	8004d10 <SEGGER_SYSVIEW_Stop>
 80049aa:	e7fa      	b.n	80049a2 <_HandleIncomingPacket+0x76>
 80049ac:	f000 f912 	bl	8004bd4 <SEGGER_SYSVIEW_RecordSystime>
 80049b0:	e7f7      	b.n	80049a2 <_HandleIncomingPacket+0x76>
 80049b2:	f000 f9c5 	bl	8004d40 <SEGGER_SYSVIEW_GetSysDesc>
 80049b6:	e7f4      	b.n	80049a2 <_HandleIncomingPacket+0x76>
 80049b8:	f7ff ff3c 	bl	8004834 <SEGGER_SYSVIEW_SendNumModules>
 80049bc:	e7f1      	b.n	80049a2 <_HandleIncomingPacket+0x76>
 80049be:	f7ff ff2d 	bl	800481c <SEGGER_SYSVIEW_SendModuleDescription>
 80049c2:	e7ee      	b.n	80049a2 <_HandleIncomingPacket+0x76>
 80049c4:	20004d5c 	.word	0x20004d5c

080049c8 <_SendPacket>:
 80049c8:	e92d 41ff 	stmdb	sp!, {r0, r1, r2, r3, r4, r5, r6, r7, r8, lr}
 80049cc:	4c4f      	ldr	r4, [pc, #316]	; (8004b0c <_SendPacket+0x144>)
 80049ce:	7823      	ldrb	r3, [r4, #0]
 80049d0:	2b01      	cmp	r3, #1
 80049d2:	4606      	mov	r6, r0
 80049d4:	460f      	mov	r7, r1
 80049d6:	4615      	mov	r5, r2
 80049d8:	d123      	bne.n	8004a22 <_SendPacket+0x5a>
 80049da:	2d1f      	cmp	r5, #31
 80049dc:	d96f      	bls.n	8004abe <_SendPacket+0xf6>
 80049de:	1bbb      	subs	r3, r7, r6
 80049e0:	2b7f      	cmp	r3, #127	; 0x7f
 80049e2:	b2da      	uxtb	r2, r3
 80049e4:	bf81      	itttt	hi
 80049e6:	f062 027f 	ornhi	r2, r2, #127	; 0x7f
 80049ea:	09db      	lsrhi	r3, r3, #7
 80049ec:	f806 3c01 	strbhi.w	r3, [r6, #-1]
 80049f0:	f806 2c02 	strbhi.w	r2, [r6, #-2]
 80049f4:	bf8e      	itee	hi
 80049f6:	1eb3      	subhi	r3, r6, #2
 80049f8:	f106 33ff 	addls.w	r3, r6, #4294967295
 80049fc:	f806 2c01 	strbls.w	r2, [r6, #-1]
 8004a00:	2d7f      	cmp	r5, #127	; 0x7f
 8004a02:	b2ea      	uxtb	r2, r5
 8004a04:	bf81      	itttt	hi
 8004a06:	f062 027f 	ornhi	r2, r2, #127	; 0x7f
 8004a0a:	09ed      	lsrhi	r5, r5, #7
 8004a0c:	f803 5c01 	strbhi.w	r5, [r3, #-1]
 8004a10:	1e99      	subhi	r1, r3, #2
 8004a12:	bf8e      	itee	hi
 8004a14:	f803 2c02 	strbhi.w	r2, [r3, #-2]
 8004a18:	f103 31ff 	addls.w	r1, r3, #4294967295
 8004a1c:	f803 2c01 	strbls.w	r2, [r3, #-1]
 8004a20:	e057      	b.n	8004ad2 <_SendPacket+0x10a>
 8004a22:	b33b      	cbz	r3, 8004a74 <_SendPacket+0xac>
 8004a24:	2b02      	cmp	r3, #2
 8004a26:	d1d8      	bne.n	80049da <_SendPacket+0x12>
 8004a28:	2301      	movs	r3, #1
 8004a2a:	6962      	ldr	r2, [r4, #20]
 8004a2c:	f88d 3004 	strb.w	r3, [sp, #4]
 8004a30:	f10d 0005 	add.w	r0, sp, #5
 8004a34:	2a7f      	cmp	r2, #127	; 0x7f
 8004a36:	b2d3      	uxtb	r3, r2
 8004a38:	f100 0101 	add.w	r1, r0, #1
 8004a3c:	d82d      	bhi.n	8004a9a <_SendPacket+0xd2>
 8004a3e:	7003      	strb	r3, [r0, #0]
 8004a40:	4b33      	ldr	r3, [pc, #204]	; (8004b10 <_SendPacket+0x148>)
 8004a42:	f8d3 8000 	ldr.w	r8, [r3]
 8004a46:	68e3      	ldr	r3, [r4, #12]
 8004a48:	eba8 0303 	sub.w	r3, r8, r3
 8004a4c:	2b7f      	cmp	r3, #127	; 0x7f
 8004a4e:	b2d8      	uxtb	r0, r3
 8004a50:	f101 0201 	add.w	r2, r1, #1
 8004a54:	d828      	bhi.n	8004aa8 <_SendPacket+0xe0>
 8004a56:	7008      	strb	r0, [r1, #0]
 8004a58:	a901      	add	r1, sp, #4
 8004a5a:	1a52      	subs	r2, r2, r1
 8004a5c:	7860      	ldrb	r0, [r4, #1]
 8004a5e:	f7fb fbb7 	bl	80001d0 <SEGGER_RTT_ASM_WriteSkipNoLock>
 8004a62:	b340      	cbz	r0, 8004ab6 <_SendPacket+0xee>
 8004a64:	7823      	ldrb	r3, [r4, #0]
 8004a66:	f8c4 800c 	str.w	r8, [r4, #12]
 8004a6a:	3b01      	subs	r3, #1
 8004a6c:	7023      	strb	r3, [r4, #0]
 8004a6e:	7823      	ldrb	r3, [r4, #0]
 8004a70:	2b01      	cmp	r3, #1
 8004a72:	d0b2      	beq.n	80049da <_SendPacket+0x12>
 8004a74:	4a27      	ldr	r2, [pc, #156]	; (8004b14 <_SendPacket+0x14c>)
 8004a76:	7e23      	ldrb	r3, [r4, #24]
 8004a78:	2118      	movs	r1, #24
 8004a7a:	fb01 2303 	mla	r3, r1, r3, r2
 8004a7e:	6eda      	ldr	r2, [r3, #108]	; 0x6c
 8004a80:	6f1b      	ldr	r3, [r3, #112]	; 0x70
 8004a82:	429a      	cmp	r2, r3
 8004a84:	d006      	beq.n	8004a94 <_SendPacket+0xcc>
 8004a86:	78a5      	ldrb	r5, [r4, #2]
 8004a88:	b925      	cbnz	r5, 8004a94 <_SendPacket+0xcc>
 8004a8a:	2301      	movs	r3, #1
 8004a8c:	70a3      	strb	r3, [r4, #2]
 8004a8e:	f7ff ff4d 	bl	800492c <_HandleIncomingPacket>
 8004a92:	70a5      	strb	r5, [r4, #2]
 8004a94:	b004      	add	sp, #16
 8004a96:	e8bd 81f0 	ldmia.w	sp!, {r4, r5, r6, r7, r8, pc}
 8004a9a:	f063 037f 	orn	r3, r3, #127	; 0x7f
 8004a9e:	f801 3c01 	strb.w	r3, [r1, #-1]
 8004aa2:	09d2      	lsrs	r2, r2, #7
 8004aa4:	4608      	mov	r0, r1
 8004aa6:	e7c5      	b.n	8004a34 <_SendPacket+0x6c>
 8004aa8:	f060 007f 	orn	r0, r0, #127	; 0x7f
 8004aac:	f802 0c01 	strb.w	r0, [r2, #-1]
 8004ab0:	09db      	lsrs	r3, r3, #7
 8004ab2:	4611      	mov	r1, r2
 8004ab4:	e7ca      	b.n	8004a4c <_SendPacket+0x84>
 8004ab6:	6963      	ldr	r3, [r4, #20]
 8004ab8:	3301      	adds	r3, #1
 8004aba:	6163      	str	r3, [r4, #20]
 8004abc:	e7d7      	b.n	8004a6e <_SendPacket+0xa6>
 8004abe:	69e3      	ldr	r3, [r4, #28]
 8004ac0:	40eb      	lsrs	r3, r5
 8004ac2:	07db      	lsls	r3, r3, #31
 8004ac4:	d4d6      	bmi.n	8004a74 <_SendPacket+0xac>
 8004ac6:	2d17      	cmp	r5, #23
 8004ac8:	b2eb      	uxtb	r3, r5
 8004aca:	d888      	bhi.n	80049de <_SendPacket+0x16>
 8004acc:	1e71      	subs	r1, r6, #1
 8004ace:	f806 3c01 	strb.w	r3, [r6, #-1]
 8004ad2:	4b0f      	ldr	r3, [pc, #60]	; (8004b10 <_SendPacket+0x148>)
 8004ad4:	681d      	ldr	r5, [r3, #0]
 8004ad6:	68e3      	ldr	r3, [r4, #12]
 8004ad8:	1aeb      	subs	r3, r5, r3
 8004ada:	2b7f      	cmp	r3, #127	; 0x7f
 8004adc:	b2d8      	uxtb	r0, r3
 8004ade:	f107 0201 	add.w	r2, r7, #1
 8004ae2:	d807      	bhi.n	8004af4 <_SendPacket+0x12c>
 8004ae4:	7038      	strb	r0, [r7, #0]
 8004ae6:	1a52      	subs	r2, r2, r1
 8004ae8:	7860      	ldrb	r0, [r4, #1]
 8004aea:	f7fb fb71 	bl	80001d0 <SEGGER_RTT_ASM_WriteSkipNoLock>
 8004aee:	b140      	cbz	r0, 8004b02 <_SendPacket+0x13a>
 8004af0:	60e5      	str	r5, [r4, #12]
 8004af2:	e7bf      	b.n	8004a74 <_SendPacket+0xac>
 8004af4:	f060 007f 	orn	r0, r0, #127	; 0x7f
 8004af8:	f802 0c01 	strb.w	r0, [r2, #-1]
 8004afc:	09db      	lsrs	r3, r3, #7
 8004afe:	4617      	mov	r7, r2
 8004b00:	e7eb      	b.n	8004ada <_SendPacket+0x112>
 8004b02:	7823      	ldrb	r3, [r4, #0]
 8004b04:	3301      	adds	r3, #1
 8004b06:	7023      	strb	r3, [r4, #0]
 8004b08:	e7b4      	b.n	8004a74 <_SendPacket+0xac>
 8004b0a:	bf00      	nop
 8004b0c:	20004d5c 	.word	0x20004d5c
 8004b10:	e0001004 	.word	0xe0001004
 8004b14:	20005528 	.word	0x20005528

08004b18 <SEGGER_SYSVIEW_RecordVoid>:
 8004b18:	b510      	push	{r4, lr}
 8004b1a:	4602      	mov	r2, r0
 8004b1c:	f3ef 8411 	mrs	r4, BASEPRI
 8004b20:	f04f 0120 	mov.w	r1, #32
 8004b24:	f381 8811 	msr	BASEPRI, r1
 8004b28:	4903      	ldr	r1, [pc, #12]	; (8004b38 <SEGGER_SYSVIEW_RecordVoid+0x20>)
 8004b2a:	4608      	mov	r0, r1
 8004b2c:	f7ff ff4c 	bl	80049c8 <_SendPacket>
 8004b30:	f384 8811 	msr	BASEPRI, r4
 8004b34:	bd10      	pop	{r4, pc}
 8004b36:	bf00      	nop
 8004b38:	20005188 	.word	0x20005188

08004b3c <SEGGER_SYSVIEW_RecordU32>:
 8004b3c:	b570      	push	{r4, r5, r6, lr}
 8004b3e:	4602      	mov	r2, r0
 8004b40:	460c      	mov	r4, r1
 8004b42:	f3ef 8611 	mrs	r6, BASEPRI
 8004b46:	f04f 0120 	mov.w	r1, #32
 8004b4a:	f381 8811 	msr	BASEPRI, r1
 8004b4e:	4d0a      	ldr	r5, [pc, #40]	; (8004b78 <SEGGER_SYSVIEW_RecordU32+0x3c>)
 8004b50:	2c7f      	cmp	r4, #127	; 0x7f
 8004b52:	b2e3      	uxtb	r3, r4
 8004b54:	f105 0101 	add.w	r1, r5, #1
 8004b58:	d806      	bhi.n	8004b68 <SEGGER_SYSVIEW_RecordU32+0x2c>
 8004b5a:	702b      	strb	r3, [r5, #0]
 8004b5c:	4806      	ldr	r0, [pc, #24]	; (8004b78 <SEGGER_SYSVIEW_RecordU32+0x3c>)
 8004b5e:	f7ff ff33 	bl	80049c8 <_SendPacket>
 8004b62:	f386 8811 	msr	BASEPRI, r6
 8004b66:	bd70      	pop	{r4, r5, r6, pc}
 8004b68:	f063 037f 	orn	r3, r3, #127	; 0x7f
 8004b6c:	f801 3c01 	strb.w	r3, [r1, #-1]
 8004b70:	09e4      	lsrs	r4, r4, #7
 8004b72:	460d      	mov	r5, r1
 8004b74:	e7ec      	b.n	8004b50 <SEGGER_SYSVIEW_RecordU32+0x14>
 8004b76:	bf00      	nop
 8004b78:	20005188 	.word	0x20005188

08004b7c <SEGGER_SYSVIEW_RecordU32x2>:
 8004b7c:	b570      	push	{r4, r5, r6, lr}
 8004b7e:	460c      	mov	r4, r1
 8004b80:	f3ef 8511 	mrs	r5, BASEPRI
 8004b84:	f04f 0120 	mov.w	r1, #32
 8004b88:	f381 8811 	msr	BASEPRI, r1
 8004b8c:	4e10      	ldr	r6, [pc, #64]	; (8004bd0 <SEGGER_SYSVIEW_RecordU32x2+0x54>)
 8004b8e:	2c7f      	cmp	r4, #127	; 0x7f
 8004b90:	b2e1      	uxtb	r1, r4
 8004b92:	f106 0301 	add.w	r3, r6, #1
 8004b96:	d80d      	bhi.n	8004bb4 <SEGGER_SYSVIEW_RecordU32x2+0x38>
 8004b98:	7031      	strb	r1, [r6, #0]
 8004b9a:	2a7f      	cmp	r2, #127	; 0x7f
 8004b9c:	b2d4      	uxtb	r4, r2
 8004b9e:	f103 0101 	add.w	r1, r3, #1
 8004ba2:	d80e      	bhi.n	8004bc2 <SEGGER_SYSVIEW_RecordU32x2+0x46>
 8004ba4:	4602      	mov	r2, r0
 8004ba6:	701c      	strb	r4, [r3, #0]
 8004ba8:	4809      	ldr	r0, [pc, #36]	; (8004bd0 <SEGGER_SYSVIEW_RecordU32x2+0x54>)
 8004baa:	f7ff ff0d 	bl	80049c8 <_SendPacket>
 8004bae:	f385 8811 	msr	BASEPRI, r5
 8004bb2:	bd70      	pop	{r4, r5, r6, pc}
 8004bb4:	f061 017f 	orn	r1, r1, #127	; 0x7f
 8004bb8:	f803 1c01 	strb.w	r1, [r3, #-1]
 8004bbc:	09e4      	lsrs	r4, r4, #7
 8004bbe:	461e      	mov	r6, r3
 8004bc0:	e7e5      	b.n	8004b8e <SEGGER_SYSVIEW_RecordU32x2+0x12>
 8004bc2:	f064 047f 	orn	r4, r4, #127	; 0x7f
 8004bc6:	f801 4c01 	strb.w	r4, [r1, #-1]
 8004bca:	09d2      	lsrs	r2, r2, #7
 8004bcc:	460b      	mov	r3, r1
 8004bce:	e7e4      	b.n	8004b9a <SEGGER_SYSVIEW_RecordU32x2+0x1e>
 8004bd0:	20005188 	.word	0x20005188

08004bd4 <SEGGER_SYSVIEW_RecordSystime>:
 8004bd4:	b508      	push	{r3, lr}
 8004bd6:	4b0a      	ldr	r3, [pc, #40]	; (8004c00 <SEGGER_SYSVIEW_RecordSystime+0x2c>)
 8004bd8:	6a1b      	ldr	r3, [r3, #32]
 8004bda:	b14b      	cbz	r3, 8004bf0 <SEGGER_SYSVIEW_RecordSystime+0x1c>
 8004bdc:	681b      	ldr	r3, [r3, #0]
 8004bde:	b13b      	cbz	r3, 8004bf0 <SEGGER_SYSVIEW_RecordSystime+0x1c>
 8004be0:	4798      	blx	r3
 8004be2:	e8bd 4008 	ldmia.w	sp!, {r3, lr}
 8004be6:	460a      	mov	r2, r1
 8004be8:	4601      	mov	r1, r0
 8004bea:	200d      	movs	r0, #13
 8004bec:	f7ff bfc6 	b.w	8004b7c <SEGGER_SYSVIEW_RecordU32x2>
 8004bf0:	4b04      	ldr	r3, [pc, #16]	; (8004c04 <SEGGER_SYSVIEW_RecordSystime+0x30>)
 8004bf2:	200c      	movs	r0, #12
 8004bf4:	6819      	ldr	r1, [r3, #0]
 8004bf6:	e8bd 4008 	ldmia.w	sp!, {r3, lr}
 8004bfa:	f7ff bf9f 	b.w	8004b3c <SEGGER_SYSVIEW_RecordU32>
 8004bfe:	bf00      	nop
 8004c00:	20004d5c 	.word	0x20004d5c
 8004c04:	e0001004 	.word	0xe0001004

08004c08 <SEGGER_SYSVIEW_RecordU32x3>:
 8004c08:	b5f8      	push	{r3, r4, r5, r6, r7, lr}
 8004c0a:	460d      	mov	r5, r1
 8004c0c:	f3ef 8611 	mrs	r6, BASEPRI
 8004c10:	f04f 0120 	mov.w	r1, #32
 8004c14:	f381 8811 	msr	BASEPRI, r1
 8004c18:	4f17      	ldr	r7, [pc, #92]	; (8004c78 <SEGGER_SYSVIEW_RecordU32x3+0x70>)
 8004c1a:	2d7f      	cmp	r5, #127	; 0x7f
 8004c1c:	b2ec      	uxtb	r4, r5
 8004c1e:	f107 0101 	add.w	r1, r7, #1
 8004c22:	d813      	bhi.n	8004c4c <SEGGER_SYSVIEW_RecordU32x3+0x44>
 8004c24:	703c      	strb	r4, [r7, #0]
 8004c26:	2a7f      	cmp	r2, #127	; 0x7f
 8004c28:	b2d5      	uxtb	r5, r2
 8004c2a:	f101 0401 	add.w	r4, r1, #1
 8004c2e:	d814      	bhi.n	8004c5a <SEGGER_SYSVIEW_RecordU32x3+0x52>
 8004c30:	700d      	strb	r5, [r1, #0]
 8004c32:	2b7f      	cmp	r3, #127	; 0x7f
 8004c34:	b2da      	uxtb	r2, r3
 8004c36:	f104 0101 	add.w	r1, r4, #1
 8004c3a:	d815      	bhi.n	8004c68 <SEGGER_SYSVIEW_RecordU32x3+0x60>
 8004c3c:	7022      	strb	r2, [r4, #0]
 8004c3e:	4602      	mov	r2, r0
 8004c40:	480d      	ldr	r0, [pc, #52]	; (8004c78 <SEGGER_SYSVIEW_RecordU32x3+0x70>)
 8004c42:	f7ff fec1 	bl	80049c8 <_SendPacket>
 8004c46:	f386 8811 	msr	BASEPRI, r6
 8004c4a:	bdf8      	pop	{r3, r4, r5, r6, r7, pc}
 8004c4c:	f064 047f 	orn	r4, r4, #127	; 0x7f
 8004c50:	f801 4c01 	strb.w	r4, [r1, #-1]
 8004c54:	09ed      	lsrs	r5, r5, #7
 8004c56:	460f      	mov	r7, r1
 8004c58:	e7df      	b.n	8004c1a <SEGGER_SYSVIEW_RecordU32x3+0x12>
 8004c5a:	f065 057f 	orn	r5, r5, #127	; 0x7f
 8004c5e:	f804 5c01 	strb.w	r5, [r4, #-1]
 8004c62:	09d2      	lsrs	r2, r2, #7
 8004c64:	4621      	mov	r1, r4
 8004c66:	e7de      	b.n	8004c26 <SEGGER_SYSVIEW_RecordU32x3+0x1e>
 8004c68:	f062 027f 	orn	r2, r2, #127	; 0x7f
 8004c6c:	f801 2c01 	strb.w	r2, [r1, #-1]
 8004c70:	09db      	lsrs	r3, r3, #7
 8004c72:	460c      	mov	r4, r1
 8004c74:	e7dd      	b.n	8004c32 <SEGGER_SYSVIEW_RecordU32x3+0x2a>
 8004c76:	bf00      	nop
 8004c78:	20005188 	.word	0x20005188

08004c7c <SEGGER_SYSVIEW_RecordU32x4>:
 8004c7c:	b5f8      	push	{r3, r4, r5, r6, r7, lr}
 8004c7e:	9d06      	ldr	r5, [sp, #24]
 8004c80:	460f      	mov	r7, r1
 8004c82:	f3ef 8611 	mrs	r6, BASEPRI
 8004c86:	f04f 0120 	mov.w	r1, #32
 8004c8a:	f381 8811 	msr	BASEPRI, r1
 8004c8e:	f8df c07c 	ldr.w	ip, [pc, #124]	; 8004d0c <SEGGER_SYSVIEW_RecordU32x4+0x90>
 8004c92:	2f7f      	cmp	r7, #127	; 0x7f
 8004c94:	b2f9      	uxtb	r1, r7
 8004c96:	f10c 0401 	add.w	r4, ip, #1
 8004c9a:	d81a      	bhi.n	8004cd2 <SEGGER_SYSVIEW_RecordU32x4+0x56>
 8004c9c:	f88c 1000 	strb.w	r1, [ip]
 8004ca0:	2a7f      	cmp	r2, #127	; 0x7f
 8004ca2:	b2d7      	uxtb	r7, r2
 8004ca4:	f104 0101 	add.w	r1, r4, #1
 8004ca8:	d81a      	bhi.n	8004ce0 <SEGGER_SYSVIEW_RecordU32x4+0x64>
 8004caa:	7027      	strb	r7, [r4, #0]
 8004cac:	2b7f      	cmp	r3, #127	; 0x7f
 8004cae:	b2dc      	uxtb	r4, r3
 8004cb0:	f101 0201 	add.w	r2, r1, #1
 8004cb4:	d81b      	bhi.n	8004cee <SEGGER_SYSVIEW_RecordU32x4+0x72>
 8004cb6:	700c      	strb	r4, [r1, #0]
 8004cb8:	2d7f      	cmp	r5, #127	; 0x7f
 8004cba:	b2eb      	uxtb	r3, r5
 8004cbc:	f102 0101 	add.w	r1, r2, #1
 8004cc0:	d81c      	bhi.n	8004cfc <SEGGER_SYSVIEW_RecordU32x4+0x80>
 8004cc2:	7013      	strb	r3, [r2, #0]
 8004cc4:	4602      	mov	r2, r0
 8004cc6:	4811      	ldr	r0, [pc, #68]	; (8004d0c <SEGGER_SYSVIEW_RecordU32x4+0x90>)
 8004cc8:	f7ff fe7e 	bl	80049c8 <_SendPacket>
 8004ccc:	f386 8811 	msr	BASEPRI, r6
 8004cd0:	bdf8      	pop	{r3, r4, r5, r6, r7, pc}
 8004cd2:	f061 017f 	orn	r1, r1, #127	; 0x7f
 8004cd6:	f804 1c01 	strb.w	r1, [r4, #-1]
 8004cda:	09ff      	lsrs	r7, r7, #7
 8004cdc:	46a4      	mov	ip, r4
 8004cde:	e7d8      	b.n	8004c92 <SEGGER_SYSVIEW_RecordU32x4+0x16>
 8004ce0:	f067 077f 	orn	r7, r7, #127	; 0x7f
 8004ce4:	f801 7c01 	strb.w	r7, [r1, #-1]
 8004ce8:	09d2      	lsrs	r2, r2, #7
 8004cea:	460c      	mov	r4, r1
 8004cec:	e7d8      	b.n	8004ca0 <SEGGER_SYSVIEW_RecordU32x4+0x24>
 8004cee:	f064 047f 	orn	r4, r4, #127	; 0x7f
 8004cf2:	f802 4c01 	strb.w	r4, [r2, #-1]
 8004cf6:	09db      	lsrs	r3, r3, #7
 8004cf8:	4611      	mov	r1, r2
 8004cfa:	e7d7      	b.n	8004cac <SEGGER_SYSVIEW_RecordU32x4+0x30>
 8004cfc:	f063 037f 	orn	r3, r3, #127	; 0x7f
 8004d00:	f801 3c01 	strb.w	r3, [r1, #-1]
 8004d04:	09ed      	lsrs	r5, r5, #7
 8004d06:	460a      	mov	r2, r1
 8004d08:	e7d6      	b.n	8004cb8 <SEGGER_SYSVIEW_RecordU32x4+0x3c>
 8004d0a:	bf00      	nop
 8004d0c:	20005188 	.word	0x20005188

08004d10 <SEGGER_SYSVIEW_Stop>:
 8004d10:	b538      	push	{r3, r4, r5, lr}
 8004d12:	f3ef 8511 	mrs	r5, BASEPRI
 8004d16:	f04f 0120 	mov.w	r1, #32
 8004d1a:	f381 8811 	msr	BASEPRI, r1
 8004d1e:	4c06      	ldr	r4, [pc, #24]	; (8004d38 <SEGGER_SYSVIEW_Stop+0x28>)
 8004d20:	7823      	ldrb	r3, [r4, #0]
 8004d22:	b133      	cbz	r3, 8004d32 <SEGGER_SYSVIEW_Stop+0x22>
 8004d24:	4905      	ldr	r1, [pc, #20]	; (8004d3c <SEGGER_SYSVIEW_Stop+0x2c>)
 8004d26:	220b      	movs	r2, #11
 8004d28:	4608      	mov	r0, r1
 8004d2a:	f7ff fe4d 	bl	80049c8 <_SendPacket>
 8004d2e:	2300      	movs	r3, #0
 8004d30:	7023      	strb	r3, [r4, #0]
 8004d32:	f385 8811 	msr	BASEPRI, r5
 8004d36:	bd38      	pop	{r3, r4, r5, pc}
 8004d38:	20004d5c 	.word	0x20004d5c
 8004d3c:	20005188 	.word	0x20005188

08004d40 <SEGGER_SYSVIEW_GetSysDesc>:
 8004d40:	b570      	push	{r4, r5, r6, lr}
 8004d42:	f3ef 8511 	mrs	r5, BASEPRI
 8004d46:	f04f 0120 	mov.w	r1, #32
 8004d4a:	f381 8811 	msr	BASEPRI, r1
 8004d4e:	4c1c      	ldr	r4, [pc, #112]	; (8004dc0 <SEGGER_SYSVIEW_GetSysDesc+0x80>)
 8004d50:	481c      	ldr	r0, [pc, #112]	; (8004dc4 <SEGGER_SYSVIEW_GetSysDesc+0x84>)
 8004d52:	6861      	ldr	r1, [r4, #4]
 8004d54:	297f      	cmp	r1, #127	; 0x7f
 8004d56:	b2ca      	uxtb	r2, r1
 8004d58:	f100 0301 	add.w	r3, r0, #1
 8004d5c:	d81a      	bhi.n	8004d94 <SEGGER_SYSVIEW_GetSysDesc+0x54>
 8004d5e:	7002      	strb	r2, [r0, #0]
 8004d60:	68a0      	ldr	r0, [r4, #8]
 8004d62:	287f      	cmp	r0, #127	; 0x7f
 8004d64:	b2c2      	uxtb	r2, r0
 8004d66:	f103 0101 	add.w	r1, r3, #1
 8004d6a:	d81a      	bhi.n	8004da2 <SEGGER_SYSVIEW_GetSysDesc+0x62>
 8004d6c:	701a      	strb	r2, [r3, #0]
 8004d6e:	6922      	ldr	r2, [r4, #16]
 8004d70:	2a7f      	cmp	r2, #127	; 0x7f
 8004d72:	b2d3      	uxtb	r3, r2
 8004d74:	d81c      	bhi.n	8004db0 <SEGGER_SYSVIEW_GetSysDesc+0x70>
 8004d76:	700b      	strb	r3, [r1, #0]
 8004d78:	2300      	movs	r3, #0
 8004d7a:	704b      	strb	r3, [r1, #1]
 8004d7c:	2218      	movs	r2, #24
 8004d7e:	3102      	adds	r1, #2
 8004d80:	4810      	ldr	r0, [pc, #64]	; (8004dc4 <SEGGER_SYSVIEW_GetSysDesc+0x84>)
 8004d82:	f7ff fe21 	bl	80049c8 <_SendPacket>
 8004d86:	f385 8811 	msr	BASEPRI, r5
 8004d8a:	6a63      	ldr	r3, [r4, #36]	; 0x24
 8004d8c:	b1b3      	cbz	r3, 8004dbc <SEGGER_SYSVIEW_GetSysDesc+0x7c>
 8004d8e:	e8bd 4070 	ldmia.w	sp!, {r4, r5, r6, lr}
 8004d92:	4718      	bx	r3
 8004d94:	f062 027f 	orn	r2, r2, #127	; 0x7f
 8004d98:	f803 2c01 	strb.w	r2, [r3, #-1]
 8004d9c:	09c9      	lsrs	r1, r1, #7
 8004d9e:	4618      	mov	r0, r3
 8004da0:	e7d8      	b.n	8004d54 <SEGGER_SYSVIEW_GetSysDesc+0x14>
 8004da2:	f062 027f 	orn	r2, r2, #127	; 0x7f
 8004da6:	f801 2c01 	strb.w	r2, [r1, #-1]
 8004daa:	09c0      	lsrs	r0, r0, #7
 8004dac:	460b      	mov	r3, r1
 8004dae:	e7d8      	b.n	8004d62 <SEGGER_SYSVIEW_GetSysDesc+0x22>
 8004db0:	f063 037f 	orn	r3, r3, #127	; 0x7f
 8004db4:	f801 3b01 	strb.w	r3, [r1], #1
 8004db8:	09d2      	lsrs	r2, r2, #7
 8004dba:	e7d9      	b.n	8004d70 <SEGGER_SYSVIEW_GetSysDesc+0x30>
 8004dbc:	bd70      	pop	{r4, r5, r6, pc}
 8004dbe:	bf00      	nop
 8004dc0:	20004d5c 	.word	0x20004d5c
 8004dc4:	20005188 	.word	0x20005188

08004dc8 <SEGGER_SYSVIEW_SendTaskInfo>:
 8004dc8:	b570      	push	{r4, r5, r6, lr}
 8004dca:	4604      	mov	r4, r0
 8004dcc:	f3ef 8511 	mrs	r5, BASEPRI
 8004dd0:	f04f 0120 	mov.w	r1, #32
 8004dd4:	f381 8811 	msr	BASEPRI, r1
 8004dd8:	4e2e      	ldr	r6, [pc, #184]	; (8004e94 <SEGGER_SYSVIEW_SendTaskInfo+0xcc>)
 8004dda:	6803      	ldr	r3, [r0, #0]
 8004ddc:	6932      	ldr	r2, [r6, #16]
 8004dde:	482e      	ldr	r0, [pc, #184]	; (8004e98 <SEGGER_SYSVIEW_SendTaskInfo+0xd0>)
 8004de0:	1a9b      	subs	r3, r3, r2
 8004de2:	2b7f      	cmp	r3, #127	; 0x7f
 8004de4:	b2d9      	uxtb	r1, r3
 8004de6:	f100 0201 	add.w	r2, r0, #1
 8004dea:	d830      	bhi.n	8004e4e <SEGGER_SYSVIEW_SendTaskInfo+0x86>
 8004dec:	7001      	strb	r1, [r0, #0]
 8004dee:	68a1      	ldr	r1, [r4, #8]
 8004df0:	297f      	cmp	r1, #127	; 0x7f
 8004df2:	b2cb      	uxtb	r3, r1
 8004df4:	f102 0001 	add.w	r0, r2, #1
 8004df8:	d830      	bhi.n	8004e5c <SEGGER_SYSVIEW_SendTaskInfo+0x94>
 8004dfa:	7013      	strb	r3, [r2, #0]
 8004dfc:	6861      	ldr	r1, [r4, #4]
 8004dfe:	2220      	movs	r2, #32
 8004e00:	f7ff fca4 	bl	800474c <_EncodeStr>
 8004e04:	2209      	movs	r2, #9
 8004e06:	4601      	mov	r1, r0
 8004e08:	4823      	ldr	r0, [pc, #140]	; (8004e98 <SEGGER_SYSVIEW_SendTaskInfo+0xd0>)
 8004e0a:	f7ff fddd 	bl	80049c8 <_SendPacket>
 8004e0e:	6823      	ldr	r3, [r4, #0]
 8004e10:	6932      	ldr	r2, [r6, #16]
 8004e12:	4821      	ldr	r0, [pc, #132]	; (8004e98 <SEGGER_SYSVIEW_SendTaskInfo+0xd0>)
 8004e14:	1a9b      	subs	r3, r3, r2
 8004e16:	2b7f      	cmp	r3, #127	; 0x7f
 8004e18:	b2d9      	uxtb	r1, r3
 8004e1a:	f100 0201 	add.w	r2, r0, #1
 8004e1e:	d824      	bhi.n	8004e6a <SEGGER_SYSVIEW_SendTaskInfo+0xa2>
 8004e20:	7001      	strb	r1, [r0, #0]
 8004e22:	68e0      	ldr	r0, [r4, #12]
 8004e24:	287f      	cmp	r0, #127	; 0x7f
 8004e26:	b2c3      	uxtb	r3, r0
 8004e28:	f102 0101 	add.w	r1, r2, #1
 8004e2c:	d824      	bhi.n	8004e78 <SEGGER_SYSVIEW_SendTaskInfo+0xb0>
 8004e2e:	7013      	strb	r3, [r2, #0]
 8004e30:	6922      	ldr	r2, [r4, #16]
 8004e32:	2a7f      	cmp	r2, #127	; 0x7f
 8004e34:	b2d3      	uxtb	r3, r2
 8004e36:	d826      	bhi.n	8004e86 <SEGGER_SYSVIEW_SendTaskInfo+0xbe>
 8004e38:	700b      	strb	r3, [r1, #0]
 8004e3a:	2300      	movs	r3, #0
 8004e3c:	704b      	strb	r3, [r1, #1]
 8004e3e:	2215      	movs	r2, #21
 8004e40:	3102      	adds	r1, #2
 8004e42:	4815      	ldr	r0, [pc, #84]	; (8004e98 <SEGGER_SYSVIEW_SendTaskInfo+0xd0>)
 8004e44:	f7ff fdc0 	bl	80049c8 <_SendPacket>
 8004e48:	f385 8811 	msr	BASEPRI, r5
 8004e4c:	bd70      	pop	{r4, r5, r6, pc}
 8004e4e:	f061 017f 	orn	r1, r1, #127	; 0x7f
 8004e52:	f802 1c01 	strb.w	r1, [r2, #-1]
 8004e56:	09db      	lsrs	r3, r3, #7
 8004e58:	4610      	mov	r0, r2
 8004e5a:	e7c2      	b.n	8004de2 <SEGGER_SYSVIEW_SendTaskInfo+0x1a>
 8004e5c:	f063 037f 	orn	r3, r3, #127	; 0x7f
 8004e60:	f800 3c01 	strb.w	r3, [r0, #-1]
 8004e64:	09c9      	lsrs	r1, r1, #7
 8004e66:	4602      	mov	r2, r0
 8004e68:	e7c2      	b.n	8004df0 <SEGGER_SYSVIEW_SendTaskInfo+0x28>
 8004e6a:	f061 017f 	orn	r1, r1, #127	; 0x7f
 8004e6e:	f802 1c01 	strb.w	r1, [r2, #-1]
 8004e72:	09db      	lsrs	r3, r3, #7
 8004e74:	4610      	mov	r0, r2
 8004e76:	e7ce      	b.n	8004e16 <SEGGER_SYSVIEW_SendTaskInfo+0x4e>
 8004e78:	f063 037f 	orn	r3, r3, #127	; 0x7f
 8004e7c:	f801 3c01 	strb.w	r3, [r1, #-1]
 8004e80:	09c0      	lsrs	r0, r0, #7
 8004e82:	460a      	mov	r2, r1
 8004e84:	e7ce      	b.n	8004e24 <SEGGER_SYSVIEW_SendTaskInfo+0x5c>
 8004e86:	f063 037f 	orn	r3, r3, #127	; 0x7f
 8004e8a:	f801 3b01 	strb.w	r3, [r1], #1
 8004e8e:	09d2      	lsrs	r2, r2, #7
 8004e90:	e7cf      	b.n	8004e32 <SEGGER_SYSVIEW_SendTaskInfo+0x6a>
 8004e92:	bf00      	nop
 8004e94:	20004d5c 	.word	0x20004d5c
 8004e98:	20005188 	.word	0x20005188

08004e9c <SEGGER_SYSVIEW_SendSysDesc>:
 8004e9c:	b538      	push	{r3, r4, r5, lr}
 8004e9e:	f3ef 8511 	mrs	r5, BASEPRI
 8004ea2:	f04f 0120 	mov.w	r1, #32
 8004ea6:	f381 8811 	msr	BASEPRI, r1
 8004eaa:	4c07      	ldr	r4, [pc, #28]	; (8004ec8 <SEGGER_SYSVIEW_SendSysDesc+0x2c>)
 8004eac:	4601      	mov	r1, r0
 8004eae:	2280      	movs	r2, #128	; 0x80
 8004eb0:	4620      	mov	r0, r4
 8004eb2:	f7ff fc4b 	bl	800474c <_EncodeStr>
 8004eb6:	220e      	movs	r2, #14
 8004eb8:	4601      	mov	r1, r0
 8004eba:	4620      	mov	r0, r4
 8004ebc:	f7ff fd84 	bl	80049c8 <_SendPacket>
 8004ec0:	f385 8811 	msr	BASEPRI, r5
 8004ec4:	bd38      	pop	{r3, r4, r5, pc}
 8004ec6:	bf00      	nop
 8004ec8:	20005188 	.word	0x20005188

08004ecc <SEGGER_SYSVIEW_RecordEnterISR>:
 8004ecc:	b510      	push	{r4, lr}
 8004ece:	f3ef 8411 	mrs	r4, BASEPRI
 8004ed2:	f04f 0120 	mov.w	r1, #32
 8004ed6:	f381 8811 	msr	BASEPRI, r1
 8004eda:	4b0c      	ldr	r3, [pc, #48]	; (8004f0c <SEGGER_SYSVIEW_RecordEnterISR+0x40>)
 8004edc:	480c      	ldr	r0, [pc, #48]	; (8004f10 <SEGGER_SYSVIEW_RecordEnterISR+0x44>)
 8004ede:	681b      	ldr	r3, [r3, #0]
 8004ee0:	f3c3 0308 	ubfx	r3, r3, #0, #9
 8004ee4:	2b7f      	cmp	r3, #127	; 0x7f
 8004ee6:	b2da      	uxtb	r2, r3
 8004ee8:	f100 0101 	add.w	r1, r0, #1
 8004eec:	d807      	bhi.n	8004efe <SEGGER_SYSVIEW_RecordEnterISR+0x32>
 8004eee:	7002      	strb	r2, [r0, #0]
 8004ef0:	2202      	movs	r2, #2
 8004ef2:	4807      	ldr	r0, [pc, #28]	; (8004f10 <SEGGER_SYSVIEW_RecordEnterISR+0x44>)
 8004ef4:	f7ff fd68 	bl	80049c8 <_SendPacket>
 8004ef8:	f384 8811 	msr	BASEPRI, r4
 8004efc:	bd10      	pop	{r4, pc}
 8004efe:	f062 027f 	orn	r2, r2, #127	; 0x7f
 8004f02:	f801 2c01 	strb.w	r2, [r1, #-1]
 8004f06:	09db      	lsrs	r3, r3, #7
 8004f08:	4608      	mov	r0, r1
 8004f0a:	e7eb      	b.n	8004ee4 <SEGGER_SYSVIEW_RecordEnterISR+0x18>
 8004f0c:	e000ed04 	.word	0xe000ed04
 8004f10:	20005188 	.word	0x20005188

08004f14 <SEGGER_SYSVIEW_RecordExitISR>:
 8004f14:	b510      	push	{r4, lr}
 8004f16:	f3ef 8411 	mrs	r4, BASEPRI
 8004f1a:	f04f 0120 	mov.w	r1, #32
 8004f1e:	f381 8811 	msr	BASEPRI, r1
 8004f22:	4904      	ldr	r1, [pc, #16]	; (8004f34 <SEGGER_SYSVIEW_RecordExitISR+0x20>)
 8004f24:	2203      	movs	r2, #3
 8004f26:	4608      	mov	r0, r1
 8004f28:	f7ff fd4e 	bl	80049c8 <_SendPacket>
 8004f2c:	f384 8811 	msr	BASEPRI, r4
 8004f30:	bd10      	pop	{r4, pc}
 8004f32:	bf00      	nop
 8004f34:	20005188 	.word	0x20005188

08004f38 <SEGGER_SYSVIEW_OnIdle>:
 8004f38:	b510      	push	{r4, lr}
 8004f3a:	f3ef 8411 	mrs	r4, BASEPRI
 8004f3e:	f04f 0120 	mov.w	r1, #32
 8004f42:	f381 8811 	msr	BASEPRI, r1
 8004f46:	4904      	ldr	r1, [pc, #16]	; (8004f58 <SEGGER_SYSVIEW_OnIdle+0x20>)
 8004f48:	2211      	movs	r2, #17
 8004f4a:	4608      	mov	r0, r1
 8004f4c:	f7ff fd3c 	bl	80049c8 <_SendPacket>
 8004f50:	f384 8811 	msr	BASEPRI, r4
 8004f54:	bd10      	pop	{r4, pc}
 8004f56:	bf00      	nop
 8004f58:	20005188 	.word	0x20005188

08004f5c <SEGGER_SYSVIEW_OnTaskCreate>:
 8004f5c:	b510      	push	{r4, lr}
 8004f5e:	f3ef 8411 	mrs	r4, BASEPRI
 8004f62:	f04f 0120 	mov.w	r1, #32
 8004f66:	f381 8811 	msr	BASEPRI, r1
 8004f6a:	4b0c      	ldr	r3, [pc, #48]	; (8004f9c <SEGGER_SYSVIEW_OnTaskCreate+0x40>)
 8004f6c:	4a0c      	ldr	r2, [pc, #48]	; (8004fa0 <SEGGER_SYSVIEW_OnTaskCreate+0x44>)
 8004f6e:	691b      	ldr	r3, [r3, #16]
 8004f70:	1ac0      	subs	r0, r0, r3
 8004f72:	287f      	cmp	r0, #127	; 0x7f
 8004f74:	b2c3      	uxtb	r3, r0
 8004f76:	f102 0101 	add.w	r1, r2, #1
 8004f7a:	d807      	bhi.n	8004f8c <SEGGER_SYSVIEW_OnTaskCreate+0x30>
 8004f7c:	7013      	strb	r3, [r2, #0]
 8004f7e:	4808      	ldr	r0, [pc, #32]	; (8004fa0 <SEGGER_SYSVIEW_OnTaskCreate+0x44>)
 8004f80:	2208      	movs	r2, #8
 8004f82:	f7ff fd21 	bl	80049c8 <_SendPacket>
 8004f86:	f384 8811 	msr	BASEPRI, r4
 8004f8a:	bd10      	pop	{r4, pc}
 8004f8c:	f063 037f 	orn	r3, r3, #127	; 0x7f
 8004f90:	f801 3c01 	strb.w	r3, [r1, #-1]
 8004f94:	09c0      	lsrs	r0, r0, #7
 8004f96:	460a      	mov	r2, r1
 8004f98:	e7eb      	b.n	8004f72 <SEGGER_SYSVIEW_OnTaskCreate+0x16>
 8004f9a:	bf00      	nop
 8004f9c:	20004d5c 	.word	0x20004d5c
 8004fa0:	20005188 	.word	0x20005188

08004fa4 <SEGGER_SYSVIEW_OnTaskStartExec>:
 8004fa4:	b510      	push	{r4, lr}
 8004fa6:	f3ef 8411 	mrs	r4, BASEPRI
 8004faa:	f04f 0120 	mov.w	r1, #32
 8004fae:	f381 8811 	msr	BASEPRI, r1
 8004fb2:	4b0c      	ldr	r3, [pc, #48]	; (8004fe4 <SEGGER_SYSVIEW_OnTaskStartExec+0x40>)
 8004fb4:	4a0c      	ldr	r2, [pc, #48]	; (8004fe8 <SEGGER_SYSVIEW_OnTaskStartExec+0x44>)
 8004fb6:	691b      	ldr	r3, [r3, #16]
 8004fb8:	1ac0      	subs	r0, r0, r3
 8004fba:	287f      	cmp	r0, #127	; 0x7f
 8004fbc:	b2c3      	uxtb	r3, r0
 8004fbe:	f102 0101 	add.w	r1, r2, #1
 8004fc2:	d807      	bhi.n	8004fd4 <SEGGER_SYSVIEW_OnTaskStartExec+0x30>
 8004fc4:	7013      	strb	r3, [r2, #0]
 8004fc6:	4808      	ldr	r0, [pc, #32]	; (8004fe8 <SEGGER_SYSVIEW_OnTaskStartExec+0x44>)
 8004fc8:	2204      	movs	r2, #4
 8004fca:	f7ff fcfd 	bl	80049c8 <_SendPacket>
 8004fce:	f384 8811 	msr	BASEPRI, r4
 8004fd2:	bd10      	pop	{r4, pc}
 8004fd4:	f063 037f 	orn	r3, r3, #127	; 0x7f
 8004fd8:	f801 3c01 	strb.w	r3, [r1, #-1]
 8004fdc:	09c0      	lsrs	r0, r0, #7
 8004fde:	460a      	mov	r2, r1
 8004fe0:	e7eb      	b.n	8004fba <SEGGER_SYSVIEW_OnTaskStartExec+0x16>
 8004fe2:	bf00      	nop
 8004fe4:	20004d5c 	.word	0x20004d5c
 8004fe8:	20005188 	.word	0x20005188

08004fec <SEGGER_SYSVIEW_OnTaskStartReady>:
 8004fec:	b510      	push	{r4, lr}
 8004fee:	f3ef 8411 	mrs	r4, BASEPRI
 8004ff2:	f04f 0120 	mov.w	r1, #32
 8004ff6:	f381 8811 	msr	BASEPRI, r1
 8004ffa:	4b0c      	ldr	r3, [pc, #48]	; (800502c <SEGGER_SYSVIEW_OnTaskStartReady+0x40>)
 8004ffc:	4a0c      	ldr	r2, [pc, #48]	; (8005030 <SEGGER_SYSVIEW_OnTaskStartReady+0x44>)
 8004ffe:	691b      	ldr	r3, [r3, #16]
 8005000:	1ac0      	subs	r0, r0, r3
 8005002:	287f      	cmp	r0, #127	; 0x7f
 8005004:	b2c3      	uxtb	r3, r0
 8005006:	f102 0101 	add.w	r1, r2, #1
 800500a:	d807      	bhi.n	800501c <SEGGER_SYSVIEW_OnTaskStartReady+0x30>
 800500c:	7013      	strb	r3, [r2, #0]
 800500e:	4808      	ldr	r0, [pc, #32]	; (8005030 <SEGGER_SYSVIEW_OnTaskStartReady+0x44>)
 8005010:	2206      	movs	r2, #6
 8005012:	f7ff fcd9 	bl	80049c8 <_SendPacket>
 8005016:	f384 8811 	msr	BASEPRI, r4
 800501a:	bd10      	pop	{r4, pc}
 800501c:	f063 037f 	orn	r3, r3, #127	; 0x7f
 8005020:	f801 3c01 	strb.w	r3, [r1, #-1]
 8005024:	09c0      	lsrs	r0, r0, #7
 8005026:	460a      	mov	r2, r1
 8005028:	e7eb      	b.n	8005002 <SEGGER_SYSVIEW_OnTaskStartReady+0x16>
 800502a:	bf00      	nop
 800502c:	20004d5c 	.word	0x20004d5c
 8005030:	20005188 	.word	0x20005188

08005034 <SEGGER_SYSVIEW_SendModule>:
 8005034:	b538      	push	{r3, r4, r5, lr}
 8005036:	4b1b      	ldr	r3, [pc, #108]	; (80050a4 <SEGGER_SYSVIEW_SendModule+0x70>)
 8005038:	681c      	ldr	r4, [r3, #0]
 800503a:	b984      	cbnz	r4, 800505e <SEGGER_SYSVIEW_SendModule+0x2a>
 800503c:	bd38      	pop	{r3, r4, r5, pc}
 800503e:	6924      	ldr	r4, [r4, #16]
 8005040:	2c00      	cmp	r4, #0
 8005042:	d0fb      	beq.n	800503c <SEGGER_SYSVIEW_SendModule+0x8>
 8005044:	3301      	adds	r3, #1
 8005046:	4298      	cmp	r0, r3
 8005048:	d8f9      	bhi.n	800503e <SEGGER_SYSVIEW_SendModule+0xa>
 800504a:	f3ef 8511 	mrs	r5, BASEPRI
 800504e:	f04f 0120 	mov.w	r1, #32
 8005052:	f381 8811 	msr	BASEPRI, r1
 8005056:	287f      	cmp	r0, #127	; 0x7f
 8005058:	d804      	bhi.n	8005064 <SEGGER_SYSVIEW_SendModule+0x30>
 800505a:	4b13      	ldr	r3, [pc, #76]	; (80050a8 <SEGGER_SYSVIEW_SendModule+0x74>)
 800505c:	e006      	b.n	800506c <SEGGER_SYSVIEW_SendModule+0x38>
 800505e:	2300      	movs	r3, #0
 8005060:	4602      	mov	r2, r0
 8005062:	e7f0      	b.n	8005046 <SEGGER_SYSVIEW_SendModule+0x12>
 8005064:	4b11      	ldr	r3, [pc, #68]	; (80050ac <SEGGER_SYSVIEW_SendModule+0x78>)
 8005066:	2201      	movs	r2, #1
 8005068:	7118      	strb	r0, [r3, #4]
 800506a:	3305      	adds	r3, #5
 800506c:	701a      	strb	r2, [r3, #0]
 800506e:	68a2      	ldr	r2, [r4, #8]
 8005070:	1c59      	adds	r1, r3, #1
 8005072:	2a7f      	cmp	r2, #127	; 0x7f
 8005074:	b2d3      	uxtb	r3, r2
 8005076:	f101 0001 	add.w	r0, r1, #1
 800507a:	d80c      	bhi.n	8005096 <SEGGER_SYSVIEW_SendModule+0x62>
 800507c:	700b      	strb	r3, [r1, #0]
 800507e:	6821      	ldr	r1, [r4, #0]
 8005080:	2280      	movs	r2, #128	; 0x80
 8005082:	f7ff fb63 	bl	800474c <_EncodeStr>
 8005086:	2216      	movs	r2, #22
 8005088:	4601      	mov	r1, r0
 800508a:	4807      	ldr	r0, [pc, #28]	; (80050a8 <SEGGER_SYSVIEW_SendModule+0x74>)
 800508c:	f7ff fc9c 	bl	80049c8 <_SendPacket>
 8005090:	f385 8811 	msr	BASEPRI, r5
 8005094:	e7d2      	b.n	800503c <SEGGER_SYSVIEW_SendModule+0x8>
 8005096:	f063 037f 	orn	r3, r3, #127	; 0x7f
 800509a:	f800 3c01 	strb.w	r3, [r0, #-1]
 800509e:	09d2      	lsrs	r2, r2, #7
 80050a0:	4601      	mov	r1, r0
 80050a2:	e7e6      	b.n	8005072 <SEGGER_SYSVIEW_SendModule+0x3e>
 80050a4:	20005268 	.word	0x20005268
 80050a8:	20005188 	.word	0x20005188
 80050ac:	20005184 	.word	0x20005184

080050b0 <SEGGER_SYSVIEW_Print>:
 80050b0:	b538      	push	{r3, r4, r5, lr}
 80050b2:	f3ef 8511 	mrs	r5, BASEPRI
 80050b6:	f04f 0120 	mov.w	r1, #32
 80050ba:	f381 8811 	msr	BASEPRI, r1
 80050be:	4c08      	ldr	r4, [pc, #32]	; (80050e0 <SEGGER_SYSVIEW_Print+0x30>)
 80050c0:	4601      	mov	r1, r0
 80050c2:	2280      	movs	r2, #128	; 0x80
 80050c4:	4620      	mov	r0, r4
 80050c6:	f7ff fb41 	bl	800474c <_EncodeStr>
 80050ca:	2300      	movs	r3, #0
 80050cc:	7003      	strb	r3, [r0, #0]
 80050ce:	7043      	strb	r3, [r0, #1]
 80050d0:	1c81      	adds	r1, r0, #2
 80050d2:	221a      	movs	r2, #26
 80050d4:	4620      	mov	r0, r4
 80050d6:	f7ff fc77 	bl	80049c8 <_SendPacket>
 80050da:	f385 8811 	msr	BASEPRI, r5
 80050de:	bd38      	pop	{r3, r4, r5, pc}
 80050e0:	20005188 	.word	0x20005188

080050e4 <SEGGER_SYSVIEW_Warn>:
 80050e4:	b538      	push	{r3, r4, r5, lr}
 80050e6:	f3ef 8511 	mrs	r5, BASEPRI
 80050ea:	f04f 0120 	mov.w	r1, #32
 80050ee:	f381 8811 	msr	BASEPRI, r1
 80050f2:	4c09      	ldr	r4, [pc, #36]	; (8005118 <SEGGER_SYSVIEW_Warn+0x34>)
 80050f4:	4601      	mov	r1, r0
 80050f6:	2280      	movs	r2, #128	; 0x80
 80050f8:	4620      	mov	r0, r4
 80050fa:	f7ff fb27 	bl	800474c <_EncodeStr>
 80050fe:	2301      	movs	r3, #1
 8005100:	7003      	strb	r3, [r0, #0]
 8005102:	2300      	movs	r3, #0
 8005104:	7043      	strb	r3, [r0, #1]
 8005106:	1c81      	adds	r1, r0, #2
 8005108:	221a      	movs	r2, #26
 800510a:	4620      	mov	r0, r4
 800510c:	f7ff fc5c 	bl	80049c8 <_SendPacket>
 8005110:	f385 8811 	msr	BASEPRI, r5
 8005114:	bd38      	pop	{r3, r4, r5, pc}
 8005116:	bf00      	nop
 8005118:	20005188 	.word	0x20005188

0800511c <_cbSendSystemDesc>:
 800511c:	b508      	push	{r3, lr}
 800511e:	4804      	ldr	r0, [pc, #16]	; (8005130 <_cbSendSystemDesc+0x14>)
 8005120:	f7ff febc 	bl	8004e9c <SEGGER_SYSVIEW_SendSysDesc>
 8005124:	4803      	ldr	r0, [pc, #12]	; (8005134 <_cbSendSystemDesc+0x18>)
 8005126:	e8bd 4008 	ldmia.w	sp!, {r3, lr}
 800512a:	f7ff beb7 	b.w	8004e9c <SEGGER_SYSVIEW_SendSysDesc>
 800512e:	bf00      	nop
 8005130:	080053ec 	.word	0x080053ec
 8005134:	0800541f 	.word	0x0800541f

08005138 <SEGGER_SYSVIEW_Conf>:
 8005138:	b508      	push	{r3, lr}
 800513a:	4b06      	ldr	r3, [pc, #24]	; (8005154 <SEGGER_SYSVIEW_Conf+0x1c>)
 800513c:	4a06      	ldr	r2, [pc, #24]	; (8005158 <SEGGER_SYSVIEW_Conf+0x20>)
 800513e:	6819      	ldr	r1, [r3, #0]
 8005140:	4b06      	ldr	r3, [pc, #24]	; (800515c <SEGGER_SYSVIEW_Conf+0x24>)
 8005142:	4608      	mov	r0, r1
 8005144:	f7ff fb24 	bl	8004790 <SEGGER_SYSVIEW_Init>
 8005148:	f04f 5080 	mov.w	r0, #268435456	; 0x10000000
 800514c:	e8bd 4008 	ldmia.w	sp!, {r3, lr}
 8005150:	f7ff bb4e 	b.w	80047f0 <SEGGER_SYSVIEW_SetRAMBase>
 8005154:	20000000 	.word	0x20000000
 8005158:	0800547c 	.word	0x0800547c
 800515c:	0800511d 	.word	0x0800511d

08005160 <_cbGetTime>:
 8005160:	b508      	push	{r3, lr}
 8005162:	f7fe f9e5 	bl	8003530 <xTaskGetTickCountFromISR>
 8005166:	f44f 737a 	mov.w	r3, #1000	; 0x3e8
 800516a:	fba0 0103 	umull	r0, r1, r0, r3
 800516e:	bd08      	pop	{r3, pc}

08005170 <SYSVIEW_SendTaskInfo>:
 8005170:	b57f      	push	{r0, r1, r2, r3, r4, r5, r6, lr}
 8005172:	e9cd 0101 	strd	r0, r1, [sp, #4]
 8005176:	e9cd 2303 	strd	r2, r3, [sp, #12]
 800517a:	a801      	add	r0, sp, #4
 800517c:	9b08      	ldr	r3, [sp, #32]
 800517e:	9305      	str	r3, [sp, #20]
 8005180:	f7ff fe22 	bl	8004dc8 <SEGGER_SYSVIEW_SendTaskInfo>
 8005184:	b007      	add	sp, #28
 8005186:	f85d fb04 	ldr.w	pc, [sp], #4
	...

0800518c <SYSVIEW_AddTask>:
 800518c:	e92d 41f0 	stmdb	sp!, {r4, r5, r6, r7, r8, lr}
 8005190:	460c      	mov	r4, r1
 8005192:	4605      	mov	r5, r0
 8005194:	4616      	mov	r6, r2
 8005196:	4915      	ldr	r1, [pc, #84]	; (80051ec <SYSVIEW_AddTask+0x60>)
 8005198:	f8dd 8018 	ldr.w	r8, [sp, #24]
 800519c:	2205      	movs	r2, #5
 800519e:	4620      	mov	r0, r4
 80051a0:	461f      	mov	r7, r3
 80051a2:	f000 f86d 	bl	8005280 <memcmp>
 80051a6:	b1f0      	cbz	r0, 80051e6 <SYSVIEW_AddTask+0x5a>
 80051a8:	4b11      	ldr	r3, [pc, #68]	; (80051f0 <SYSVIEW_AddTask+0x64>)
 80051aa:	681a      	ldr	r2, [r3, #0]
 80051ac:	2a07      	cmp	r2, #7
 80051ae:	d904      	bls.n	80051ba <SYSVIEW_AddTask+0x2e>
 80051b0:	4810      	ldr	r0, [pc, #64]	; (80051f4 <SYSVIEW_AddTask+0x68>)
 80051b2:	e8bd 41f0 	ldmia.w	sp!, {r4, r5, r6, r7, r8, lr}
 80051b6:	f7ff bf95 	b.w	80050e4 <SEGGER_SYSVIEW_Warn>
 80051ba:	f8df c03c 	ldr.w	ip, [pc, #60]	; 80051f8 <SYSVIEW_AddTask+0x6c>
 80051be:	2014      	movs	r0, #20
 80051c0:	4350      	muls	r0, r2
 80051c2:	eb0c 0100 	add.w	r1, ip, r0
 80051c6:	3201      	adds	r2, #1
 80051c8:	f84c 5000 	str.w	r5, [ip, r0]
 80051cc:	e9c1 4601 	strd	r4, r6, [r1, #4]
 80051d0:	e9c1 7803 	strd	r7, r8, [r1, #12]
 80051d4:	601a      	str	r2, [r3, #0]
 80051d6:	4621      	mov	r1, r4
 80051d8:	463b      	mov	r3, r7
 80051da:	4632      	mov	r2, r6
 80051dc:	4628      	mov	r0, r5
 80051de:	e8bd 41f0 	ldmia.w	sp!, {r4, r5, r6, r7, r8, lr}
 80051e2:	f7ff bfc5 	b.w	8005170 <SYSVIEW_SendTaskInfo>
 80051e6:	e8bd 81f0 	ldmia.w	sp!, {r4, r5, r6, r7, r8, pc}
 80051ea:	bf00      	nop
 80051ec:	080053b4 	.word	0x080053b4
 80051f0:	2000526c 	.word	0x2000526c
 80051f4:	0800542c 	.word	0x0800542c
 80051f8:	20005270 	.word	0x20005270

080051fc <_cbSendTaskList>:
 80051fc:	b573      	push	{r0, r1, r4, r5, r6, lr}
 80051fe:	4c0c      	ldr	r4, [pc, #48]	; (8005230 <_cbSendTaskList+0x34>)
 8005200:	4e0c      	ldr	r6, [pc, #48]	; (8005234 <_cbSendTaskList+0x38>)
 8005202:	2500      	movs	r5, #0
 8005204:	6833      	ldr	r3, [r6, #0]
 8005206:	42ab      	cmp	r3, r5
 8005208:	f104 0414 	add.w	r4, r4, #20
 800520c:	d801      	bhi.n	8005212 <_cbSendTaskList+0x16>
 800520e:	b002      	add	sp, #8
 8005210:	bd70      	pop	{r4, r5, r6, pc}
 8005212:	f854 0c14 	ldr.w	r0, [r4, #-20]
 8005216:	f7fe fc01 	bl	8003a1c <uxTaskGetStackHighWaterMark>
 800521a:	e954 2303 	ldrd	r2, r3, [r4, #-12]
 800521e:	f844 0c04 	str.w	r0, [r4, #-4]
 8005222:	9000      	str	r0, [sp, #0]
 8005224:	e954 0105 	ldrd	r0, r1, [r4, #-20]
 8005228:	f7ff ffa2 	bl	8005170 <SYSVIEW_SendTaskInfo>
 800522c:	3501      	adds	r5, #1
 800522e:	e7e9      	b.n	8005204 <_cbSendTaskList+0x8>
 8005230:	20005270 	.word	0x20005270
 8005234:	2000526c 	.word	0x2000526c

08005238 <__libc_init_array>:
 8005238:	b570      	push	{r4, r5, r6, lr}
 800523a:	4e0d      	ldr	r6, [pc, #52]	; (8005270 <__libc_init_array+0x38>)
 800523c:	4c0d      	ldr	r4, [pc, #52]	; (8005274 <__libc_init_array+0x3c>)
 800523e:	1ba4      	subs	r4, r4, r6
 8005240:	10a4      	asrs	r4, r4, #2
 8005242:	2500      	movs	r5, #0
 8005244:	42a5      	cmp	r5, r4
 8005246:	d109      	bne.n	800525c <__libc_init_array+0x24>
 8005248:	4e0b      	ldr	r6, [pc, #44]	; (8005278 <__libc_init_array+0x40>)
 800524a:	4c0c      	ldr	r4, [pc, #48]	; (800527c <__libc_init_array+0x44>)
 800524c:	f000 f842 	bl	80052d4 <_init>
 8005250:	1ba4      	subs	r4, r4, r6
 8005252:	10a4      	asrs	r4, r4, #2
 8005254:	2500      	movs	r5, #0
 8005256:	42a5      	cmp	r5, r4
 8005258:	d105      	bne.n	8005266 <__libc_init_array+0x2e>
 800525a:	bd70      	pop	{r4, r5, r6, pc}
 800525c:	f856 3025 	ldr.w	r3, [r6, r5, lsl #2]
 8005260:	4798      	blx	r3
 8005262:	3501      	adds	r5, #1
 8005264:	e7ee      	b.n	8005244 <__libc_init_array+0xc>
 8005266:	f856 3025 	ldr.w	r3, [r6, r5, lsl #2]
 800526a:	4798      	blx	r3
 800526c:	3501      	adds	r5, #1
 800526e:	e7f2      	b.n	8005256 <__libc_init_array+0x1e>
 8005270:	0800548c 	.word	0x0800548c
 8005274:	0800548c 	.word	0x0800548c
 8005278:	0800548c 	.word	0x0800548c
 800527c:	08005490 	.word	0x08005490

08005280 <memcmp>:
 8005280:	b530      	push	{r4, r5, lr}
 8005282:	2400      	movs	r4, #0
 8005284:	42a2      	cmp	r2, r4
 8005286:	d101      	bne.n	800528c <memcmp+0xc>
 8005288:	2000      	movs	r0, #0
 800528a:	e007      	b.n	800529c <memcmp+0x1c>
 800528c:	5d03      	ldrb	r3, [r0, r4]
 800528e:	3401      	adds	r4, #1
 8005290:	190d      	adds	r5, r1, r4
 8005292:	f815 5c01 	ldrb.w	r5, [r5, #-1]
 8005296:	42ab      	cmp	r3, r5
 8005298:	d0f4      	beq.n	8005284 <memcmp+0x4>
 800529a:	1b58      	subs	r0, r3, r5
 800529c:	bd30      	pop	{r4, r5, pc}

0800529e <memcpy>:
 800529e:	b510      	push	{r4, lr}
 80052a0:	1e43      	subs	r3, r0, #1
 80052a2:	440a      	add	r2, r1
 80052a4:	4291      	cmp	r1, r2
 80052a6:	d100      	bne.n	80052aa <memcpy+0xc>
 80052a8:	bd10      	pop	{r4, pc}
 80052aa:	f811 4b01 	ldrb.w	r4, [r1], #1
 80052ae:	f803 4f01 	strb.w	r4, [r3, #1]!
 80052b2:	e7f7      	b.n	80052a4 <memcpy+0x6>

080052b4 <memset>:
 80052b4:	4402      	add	r2, r0
 80052b6:	4603      	mov	r3, r0
 80052b8:	4293      	cmp	r3, r2
 80052ba:	d100      	bne.n	80052be <memset+0xa>
 80052bc:	4770      	bx	lr
 80052be:	f803 1b01 	strb.w	r1, [r3], #1
 80052c2:	e7f9      	b.n	80052b8 <memset+0x4>

080052c4 <strcpy>:
 80052c4:	4603      	mov	r3, r0
 80052c6:	f811 2b01 	ldrb.w	r2, [r1], #1
 80052ca:	f803 2b01 	strb.w	r2, [r3], #1
 80052ce:	2a00      	cmp	r2, #0
 80052d0:	d1f9      	bne.n	80052c6 <strcpy+0x2>
 80052d2:	4770      	bx	lr

080052d4 <_init>:
 80052d4:	b5f8      	push	{r3, r4, r5, r6, r7, lr}
 80052d6:	bf00      	nop
 80052d8:	bcf8      	pop	{r3, r4, r5, r6, r7}
 80052da:	bc08      	pop	{r3}
 80052dc:	469e      	mov	lr, r3
 80052de:	4770      	bx	lr

080052e0 <_fini>:
 80052e0:	b5f8      	push	{r3, r4, r5, r6, r7, lr}
 80052e2:	bf00      	nop
 80052e4:	bcf8      	pop	{r3, r4, r5, r6, r7}
 80052e6:	bc08      	pop	{r3}
 80052e8:	469e      	mov	lr, r3
 80052ea:	4770      	bx	lr
